
========================================================================

** ELF Header Information

    File Name: .\Objects\CortexM3.axf

    Machine class: ELFCLASS32 (32-bit)
    Data encoding: ELFDATA2LSB (Little endian)
    Header version: EV_CURRENT (Current version)
    Operating System ABI: none
    ABI Version: 0
    File Type: ET_EXEC (Executable) (2)
    Machine: EM_ARM (ARM)

    Image Entry point: 0x00000055
    Flags: EF_ARM_HASENTRY + EF_ARM_ABI_FLOAT_SOFT (0x05000202)

    ARM ELF revision: 5 (ABI version 2)

    Conforms to Soft float procedure-call standard

    Built with
    Component: ARM Compiler 5.06 update 7 (build 960) Tool: armasm [4d35fa]
    Component: ARM Compiler 5.06 update 7 (build 960) Tool: armlink [4d3601]

    Header size: 52 bytes (0x34)
    Program header entry size: 32 bytes (0x20)
    Section header entry size: 40 bytes (0x28)

    Program header entries: 1
    Section header entries: 16

    Program header offset: 139112 (0x00021f68)
    Section header offset: 139144 (0x00021f88)

    Section header string table index: 15

========================================================================

** Program header #0

    Type          : PT_LOAD (1)
    File Offset   : 52 (0x34)
    Virtual Addr  : 0x00000000
    Physical Addr : 0x00000000
    Size in file  : 17812 bytes (0x4594)
    Size in memory: 34864 bytes (0x8830)
    Flags         : PF_X + PF_W + PF_R + PF_ARM_ENTRY (0x80000007)
    Alignment     : 8


========================================================================

** Section #1

    Name        : ER_IROM1
    Type        : SHT_PROGBITS (0x00000001)
    Flags       : SHF_ALLOC + SHF_EXECINSTR (0x00000006)
    Addr        : 0x00000000
    File Offset : 52 (0x34)
    Size        : 17792 bytes (0x4580)
    Link        : SHN_UNDEF
    Info        : 0
    Alignment   : 4
    Entry Size  : 0

    $d.realdata
    RESET
    __Vectors
        0x00000000:    200042b0    .B.     DCD    536887984
        0x00000004:    0000006d    m...    DCD    109
        0x00000008:    00000075    u...    DCD    117
        0x0000000c:    0000007d    }...    DCD    125
        0x00000010:    00000085    ....    DCD    133
        0x00000014:    0000008d    ....    DCD    141
        0x00000018:    00000095    ....    DCD    149
        0x0000001c:    00000000    ....    DCD    0
        0x00000020:    00000000    ....    DCD    0
        0x00000024:    00000000    ....    DCD    0
        0x00000028:    00000000    ....    DCD    0
        0x0000002c:    0000009d    ....    DCD    157
        0x00000030:    000000a5    ....    DCD    165
        0x00000034:    00000000    ....    DCD    0
        0x00000038:    000000ad    ....    DCD    173
        0x0000003c:    000000b5    ....    DCD    181
        0x00000040:    000000bd    ....    DCD    189
        0x00000044:    000000c5    ....    DCD    197
        0x00000048:    000000cd    ....    DCD    205
        0x0000004c:    000000d5    ....    DCD    213
        0x00000050:    000000dd    ....    DCD    221
    $t
    .ARM.Collect$$$$00000000
    .ARM.Collect$$$$00000001
    __Vectors_End
    __main
    _main_stk
        0x00000054:    f8dfd010    ....    LDR      sp,__lit__00000000 ; [0x68] = 0x200042b0
    .ARM.Collect$$$$00000004
    _main_scatterload
        0x00000058:    f000f85a    ..Z.    BL       __scatterload ; 0x110
    .ARM.Collect$$$$00000008
    .ARM.Collect$$$$0000000A
    .ARM.Collect$$$$0000000B
    __main_after_scatterload
    _main_clock
    _main_cpp_init
    _main_init
        0x0000005c:    4800        .H      LDR      r0,[pc,#0] ; [0x60] = 0x27d5
        0x0000005e:    4700        .G      BX       r0
    $d
        0x00000060:    000027d5    .'..    DCD    10197
    $t
    .ARM.Collect$$$$0000000E
    __rt_lib_shutdown_fini
        0x00000064:    f3af8000    ....    NOP.W    
    $d
    .ARM.Collect$$$$00002712
    __lit__00000000
    .ARM.Collect$$$$0000000F
    .ARM.Collect$$$$00000011
    __rt_final_cpp
    __rt_final_exit
        0x00000068:    200042b0    .B.     DCD    536887984
    $t
    .text
    Reset_Handler
        0x0000006c:    481d        .H      LDR      r0,[pc,#116] ; [0xe4] = 0x11ed
        0x0000006e:    4780        .G      BLX      r0
        0x00000070:    481d        .H      LDR      r0,[pc,#116] ; [0xe8] = 0x27d5
        0x00000072:    4700        .G      BX       r0
    NMI_Handler
        0x00000074:    b500        ..      PUSH     {lr}
        0x00000076:    f001f87e    ..~.    BL       NMIHandler ; 0x1176
        0x0000007a:    bd00        ..      POP      {pc}
    HardFault_Handler
        0x0000007c:    b500        ..      PUSH     {lr}
        0x0000007e:    f000f85b    ..[.    BL       HardFaultHandler ; 0x138
        0x00000082:    bd00        ..      POP      {pc}
    MemManage_Handler
        0x00000084:    b500        ..      PUSH     {lr}
        0x00000086:    f001f875    ..u.    BL       MemManageHandler ; 0x1174
        0x0000008a:    bd00        ..      POP      {pc}
    BusFault_Handler
        0x0000008c:    b500        ..      PUSH     {lr}
        0x0000008e:    f000f851    ..Q.    BL       BusFaultHandler ; 0x134
        0x00000092:    bd00        ..      POP      {pc}
    UsageFault_Handler
        0x00000094:    b500        ..      PUSH     {lr}
        0x00000096:    f001f950    ..P.    BL       UsageFaultHandler ; 0x133a
        0x0000009a:    bd00        ..      POP      {pc}
    SVC_Handler
        0x0000009c:    b500        ..      PUSH     {lr}
        0x0000009e:    f001f889    ....    BL       SVCHandler ; 0x11b4
        0x000000a2:    bd00        ..      POP      {pc}
    DebugMon_Handler
        0x000000a4:    b500        ..      PUSH     {lr}
        0x000000a6:    f000f846    ..F.    BL       DebugMonHandler ; 0x136
        0x000000aa:    bd00        ..      POP      {pc}
    PendSV_Handler
        0x000000ac:    b500        ..      PUSH     {lr}
        0x000000ae:    f001f86e    ..n.    BL       PendSVHandler ; 0x118e
        0x000000b2:    bd00        ..      POP      {pc}
    SysTick_Handler
        0x000000b4:    b500        ..      PUSH     {lr}
        0x000000b6:    f001f88b    ....    BL       SysTickHandler ; 0x11d0
        0x000000ba:    bd00        ..      POP      {pc}
    UARTRX_Handler
        0x000000bc:    b500        ..      PUSH     {lr}
        0x000000be:    f001f93a    ..:.    BL       UARTRXHandler ; 0x1336
        0x000000c2:    bd00        ..      POP      {pc}
    UARTTX_Handler
        0x000000c4:    b500        ..      PUSH     {lr}
        0x000000c6:    f001f937    ..7.    BL       UARTTXHandler ; 0x1338
        0x000000ca:    bd00        ..      POP      {pc}
    UARTOVR_Handler
        0x000000cc:    b500        ..      PUSH     {lr}
        0x000000ce:    f001f931    ..1.    BL       UARTOVRHandler ; 0x1334
        0x000000d2:    bd00        ..      POP      {pc}
    TIMER0_Handler
        0x000000d4:    b500        ..      PUSH     {lr}
        0x000000d6:    f001f8bb    ....    BL       TIMER0Handler ; 0x1250
        0x000000da:    bd00        ..      POP      {pc}
    TIMER1_Handler
        0x000000dc:    b500        ..      PUSH     {lr}
        0x000000de:    f001f901    ....    BL       TIMER1Handler ; 0x12e4
        0x000000e2:    bd00        ..      POP      {pc}
    $d
        0x000000e4:    000011ed    ....    DCD    4589
        0x000000e8:    000027d5    .'..    DCD    10197
    $t
    .text
    rand
        0x000000ec:    4906        .I      LDR      r1,[pc,#24] ; [0x108] = 0x20000010
        0x000000ee:    4a07        .J      LDR      r2,[pc,#28] ; [0x10c] = 0x41c64e6d
        0x000000f0:    6808        .h      LDR      r0,[r1,#0]
        0x000000f2:    4350        PC      MULS     r0,r2,r0
        0x000000f4:    f2430239    C.9.    MOV      r2,#0x3039
        0x000000f8:    4410        .D      ADD      r0,r0,r2
        0x000000fa:    6008        .`      STR      r0,[r1,#0]
        0x000000fc:    0840        @.      LSRS     r0,r0,#1
        0x000000fe:    4770        pG      BX       lr
    srand
        0x00000100:    4901        .I      LDR      r1,[pc,#4] ; [0x108] = 0x20000010
        0x00000102:    6008        .`      STR      r0,[r1,#0]
        0x00000104:    4770        pG      BX       lr
    $d
        0x00000106:    0000        ..      DCW    0
        0x00000108:    20000010    ...     DCD    536870928
        0x0000010c:    41c64e6d    mN.A    DCD    1103515245
    $t
    .text
    __scatterload
    __scatterload_rt2
        0x00000110:    4c06        .L      LDR      r4,[pc,#24] ; [0x12c] = 0x4560
        0x00000112:    4d07        .M      LDR      r5,[pc,#28] ; [0x130] = 0x4580
        0x00000114:    e006        ..      B        0x124 ; __scatterload + 20
        0x00000116:    68e0        .h      LDR      r0,[r4,#0xc]
        0x00000118:    f0400301    @...    ORR      r3,r0,#1
        0x0000011c:    e8940007    ....    LDM      r4,{r0-r2}
        0x00000120:    4798        .G      BLX      r3
        0x00000122:    3410        .4      ADDS     r4,r4,#0x10
        0x00000124:    42ac        .B      CMP      r4,r5
        0x00000126:    d3f6        ..      BCC      0x116 ; __scatterload + 6
        0x00000128:    f7ffff98    ....    BL       __main_after_scatterload ; 0x5c
    $d
        0x0000012c:    00004560    `E..    DCD    17760
        0x00000130:    00004580    .E..    DCD    17792
    $t
    i.BusFaultHandler
    BusFaultHandler
        0x00000134:    4770        pG      BX       lr
    i.DebugMonHandler
    DebugMonHandler
        0x00000136:    4770        pG      BX       lr
    i.HardFaultHandler
    HardFaultHandler
        0x00000138:    4770        pG      BX       lr
        0x0000013a:    0000        ..      MOVS     r0,r0
    i.LCD_Clear
    LCD_Clear
        0x0000013c:    b570        p.      PUSH     {r4-r6,lr}
        0x0000013e:    4606        .F      MOV      r6,r0
        0x00000140:    2400        .$      MOVS     r4,#0
        0x00000142:    481d        .H      LDR      r0,[pc,#116] ; [0x1b8] = 0x20000014
        0x00000144:    8805        ..      LDRH     r5,[r0,#0]
        0x00000146:    8840        @.      LDRH     r0,[r0,#2]
        0x00000148:    4345        EC      MULS     r5,r0,r5
        0x0000014a:    481b        .H      LDR      r0,[pc,#108] ; [0x1b8] = 0x20000014
        0x0000014c:    8880        ..      LDRH     r0,[r0,#4]
        0x0000014e:    f6460104    F...    MOV      r1,#0x6804
        0x00000152:    4288        .B      CMP      r0,r1
        0x00000154:    d116        ..      BNE      0x184 ; LCD_Clear + 72
        0x00000156:    4818        .H      LDR      r0,[pc,#96] ; [0x1b8] = 0x20000014
        0x00000158:    7980        .y      LDRB     r0,[r0,#6]
        0x0000015a:    2801        .(      CMP      r0,#1
        0x0000015c:    d112        ..      BNE      0x184 ; LCD_Clear + 72
        0x0000015e:    2000        .       MOVS     r0,#0
        0x00000160:    4915        .I      LDR      r1,[pc,#84] ; [0x1b8] = 0x20000014
        0x00000162:    7188        .q      STRB     r0,[r1,#6]
        0x00000164:    202a        *       MOVS     r0,#0x2a
        0x00000166:    8148        H.      STRH     r0,[r1,#0xa]
        0x00000168:    202b        +       MOVS     r0,#0x2b
        0x0000016a:    8188        ..      STRH     r0,[r1,#0xc]
        0x0000016c:    2100        .!      MOVS     r1,#0
        0x0000016e:    4608        .F      MOV      r0,r1
        0x00000170:    f000fe0a    ....    BL       LCD_SetCursor ; 0xd88
        0x00000174:    2001        .       MOVS     r0,#1
        0x00000176:    4910        .I      LDR      r1,[pc,#64] ; [0x1b8] = 0x20000014
        0x00000178:    7188        .q      STRB     r0,[r1,#6]
        0x0000017a:    202b        +       MOVS     r0,#0x2b
        0x0000017c:    8148        H.      STRH     r0,[r1,#0xa]
        0x0000017e:    202a        *       MOVS     r0,#0x2a
        0x00000180:    8188        ..      STRH     r0,[r1,#0xc]
        0x00000182:    e003        ..      B        0x18c ; LCD_Clear + 80
        0x00000184:    2100        .!      MOVS     r1,#0
        0x00000186:    4608        .F      MOV      r0,r1
        0x00000188:    f000fdfe    ....    BL       LCD_SetCursor ; 0xd88
        0x0000018c:    f000ff9e    ....    BL       LCD_WriteRAM_Prepare ; 0x10cc
        0x00000190:    2400        .$      MOVS     r4,#0
        0x00000192:    e00e        ..      B        0x1b2 ; LCD_Clear + 118
        0x00000194:    2001        .       MOVS     r0,#1
        0x00000196:    4909        .I      LDR      r1,[pc,#36] ; [0x1bc] = 0x40003000
        0x00000198:    6048        H`      STR      r0,[r1,#4]
        0x0000019a:    2000        .       MOVS     r0,#0
        0x0000019c:    6008        .`      STR      r0,[r1,#0]
        0x0000019e:    4630        0F      MOV      r0,r6
        0x000001a0:    f000ffb4    ....    BL       MakeData ; 0x110c
        0x000001a4:    2000        .       MOVS     r0,#0
        0x000001a6:    4905        .I      LDR      r1,[pc,#20] ; [0x1bc] = 0x40003000
        0x000001a8:    6088        .`      STR      r0,[r1,#8]
        0x000001aa:    2001        .       MOVS     r0,#1
        0x000001ac:    6088        .`      STR      r0,[r1,#8]
        0x000001ae:    6008        .`      STR      r0,[r1,#0]
        0x000001b0:    1c64        d.      ADDS     r4,r4,#1
        0x000001b2:    42ac        .B      CMP      r4,r5
        0x000001b4:    d3ee        ..      BCC      0x194 ; LCD_Clear + 88
        0x000001b6:    bd70        p.      POP      {r4-r6,pc}
    $d
        0x000001b8:    20000014    ...     DCD    536870932
        0x000001bc:    40003000    .0.@    DCD    1073754112
    $t
    i.LCD_Display_Dir
    LCD_Display_Dir
        0x000001c0:    b510        ..      PUSH     {r4,lr}
        0x000001c2:    4604        .F      MOV      r4,r0
        0x000001c4:    bb0c        ..      CBNZ     r4,0x20a ; LCD_Display_Dir + 74
        0x000001c6:    2000        .       MOVS     r0,#0
        0x000001c8:    4919        .I      LDR      r1,[pc,#100] ; [0x230] = 0x20000014
        0x000001ca:    7188        .q      STRB     r0,[r1,#6]
        0x000001cc:    20f0        .       MOVS     r0,#0xf0
        0x000001ce:    8008        ..      STRH     r0,[r1,#0]
        0x000001d0:    f44f70a0    O..p    MOV      r0,#0x140
        0x000001d4:    8048        H.      STRH     r0,[r1,#2]
        0x000001d6:    202c        ,       MOVS     r0,#0x2c
        0x000001d8:    8108        ..      STRH     r0,[r1,#8]
        0x000001da:    202a        *       MOVS     r0,#0x2a
        0x000001dc:    8148        H.      STRH     r0,[r1,#0xa]
        0x000001de:    202b        +       MOVS     r0,#0x2b
        0x000001e0:    8188        ..      STRH     r0,[r1,#0xc]
        0x000001e2:    4608        .F      MOV      r0,r1
        0x000001e4:    8880        ..      LDRH     r0,[r0,#4]
        0x000001e6:    f6460104    F...    MOV      r1,#0x6804
        0x000001ea:    4288        .B      CMP      r0,r1
        0x000001ec:    d005        ..      BEQ      0x1fa ; LCD_Display_Dir + 58
        0x000001ee:    4810        .H      LDR      r0,[pc,#64] ; [0x230] = 0x20000014
        0x000001f0:    8880        ..      LDRH     r0,[r0,#4]
        0x000001f2:    f2453110    E..1    MOV      r1,#0x5310
        0x000001f6:    4288        .B      CMP      r0,r1
        0x000001f8:    d115        ..      BNE      0x226 ; LCD_Display_Dir + 102
        0x000001fa:    f44f70a0    O..p    MOV      r0,#0x140
        0x000001fe:    490c        .I      LDR      r1,[pc,#48] ; [0x230] = 0x20000014
        0x00000200:    8008        ..      STRH     r0,[r1,#0]
        0x00000202:    f44f70f0    O..p    MOV      r0,#0x1e0
        0x00000206:    8048        H.      STRH     r0,[r1,#2]
        0x00000208:    e00d        ..      B        0x226 ; LCD_Display_Dir + 102
        0x0000020a:    2001        .       MOVS     r0,#1
        0x0000020c:    4908        .I      LDR      r1,[pc,#32] ; [0x230] = 0x20000014
        0x0000020e:    7188        .q      STRB     r0,[r1,#6]
        0x00000210:    f44f70a0    O..p    MOV      r0,#0x140
        0x00000214:    8008        ..      STRH     r0,[r1,#0]
        0x00000216:    20f0        .       MOVS     r0,#0xf0
        0x00000218:    8048        H.      STRH     r0,[r1,#2]
        0x0000021a:    202c        ,       MOVS     r0,#0x2c
        0x0000021c:    8108        ..      STRH     r0,[r1,#8]
        0x0000021e:    202a        *       MOVS     r0,#0x2a
        0x00000220:    8148        H.      STRH     r0,[r1,#0xa]
        0x00000222:    202b        +       MOVS     r0,#0x2b
        0x00000224:    8188        ..      STRH     r0,[r1,#0xc]
        0x00000226:    2000        .       MOVS     r0,#0
        0x00000228:    f000fb96    ....    BL       LCD_Scan_Dir ; 0x958
        0x0000022c:    bd10        ..      POP      {r4,pc}
    $d
        0x0000022e:    0000        ..      DCW    0
        0x00000230:    20000014    ...     DCD    536870932
    $t
    i.LCD_DrawLine
    LCD_DrawLine
        0x00000234:    e92d4fff    -..O    PUSH     {r0-r11,lr}
        0x00000238:    b084        ..      SUB      sp,sp,#0x10
        0x0000023a:    4681        .F      MOV      r9,r0
        0x0000023c:    468a        .F      MOV      r10,r1
        0x0000023e:    2000        .       MOVS     r0,#0
        0x00000240:    9003        ..      STR      r0,[sp,#0xc]
        0x00000242:    9002        ..      STR      r0,[sp,#8]
        0x00000244:    9806        ..      LDR      r0,[sp,#0x18]
        0x00000246:    eba00509    ....    SUB      r5,r0,r9
        0x0000024a:    9807        ..      LDR      r0,[sp,#0x1c]
        0x0000024c:    eba0060a    ....    SUB      r6,r0,r10
        0x00000250:    f8cd9004    ....    STR      r9,[sp,#4]
        0x00000254:    f8cda000    ....    STR      r10,[sp,#0]
        0x00000258:    2d00        .-      CMP      r5,#0
        0x0000025a:    dd01        ..      BLE      0x260 ; LCD_DrawLine + 44
        0x0000025c:    2701        .'      MOVS     r7,#1
        0x0000025e:    e005        ..      B        0x26c ; LCD_DrawLine + 56
        0x00000260:    b90d        ..      CBNZ     r5,0x266 ; LCD_DrawLine + 50
        0x00000262:    2700        .'      MOVS     r7,#0
        0x00000264:    e002        ..      B        0x26c ; LCD_DrawLine + 56
        0x00000266:    f04f37ff    O..7    MOV      r7,#0xffffffff
        0x0000026a:    426d        mB      RSBS     r5,r5,#0
        0x0000026c:    2e00        ..      CMP      r6,#0
        0x0000026e:    dd02        ..      BLE      0x276 ; LCD_DrawLine + 66
        0x00000270:    f04f0801    O...    MOV      r8,#1
        0x00000274:    e006        ..      B        0x284 ; LCD_DrawLine + 80
        0x00000276:    b916        ..      CBNZ     r6,0x27e ; LCD_DrawLine + 74
        0x00000278:    f04f0800    O...    MOV      r8,#0
        0x0000027c:    e002        ..      B        0x284 ; LCD_DrawLine + 80
        0x0000027e:    f04f38ff    O..8    MOV      r8,#0xffffffff
        0x00000282:    4276        vB      RSBS     r6,r6,#0
        0x00000284:    42b5        .B      CMP      r5,r6
        0x00000286:    dd01        ..      BLE      0x28c ; LCD_DrawLine + 88
        0x00000288:    462c        ,F      MOV      r4,r5
        0x0000028a:    e000        ..      B        0x28e ; LCD_DrawLine + 90
        0x0000028c:    4634        4F      MOV      r4,r6
        0x0000028e:    f04f0b00    O...    MOV      r11,#0
        0x00000292:    e021        !.      B        0x2d8 ; LCD_DrawLine + 164
        0x00000294:    9a00        ..      LDR      r2,[sp,#0]
        0x00000296:    b291        ..      UXTH     r1,r2
        0x00000298:    9a01        ..      LDR      r2,[sp,#4]
        0x0000029a:    b290        ..      UXTH     r0,r2
        0x0000029c:    f000f878    ..x.    BL       LCD_DrawPoint ; 0x390
        0x000002a0:    9803        ..      LDR      r0,[sp,#0xc]
        0x000002a2:    4428        (D      ADD      r0,r0,r5
        0x000002a4:    9003        ..      STR      r0,[sp,#0xc]
        0x000002a6:    9802        ..      LDR      r0,[sp,#8]
        0x000002a8:    4430        0D      ADD      r0,r0,r6
        0x000002aa:    9002        ..      STR      r0,[sp,#8]
        0x000002ac:    9803        ..      LDR      r0,[sp,#0xc]
        0x000002ae:    42a0        .B      CMP      r0,r4
        0x000002b0:    dd05        ..      BLE      0x2be ; LCD_DrawLine + 138
        0x000002b2:    9803        ..      LDR      r0,[sp,#0xc]
        0x000002b4:    1b00        ..      SUBS     r0,r0,r4
        0x000002b6:    9003        ..      STR      r0,[sp,#0xc]
        0x000002b8:    9801        ..      LDR      r0,[sp,#4]
        0x000002ba:    4438        8D      ADD      r0,r0,r7
        0x000002bc:    9001        ..      STR      r0,[sp,#4]
        0x000002be:    9802        ..      LDR      r0,[sp,#8]
        0x000002c0:    42a0        .B      CMP      r0,r4
        0x000002c2:    dd05        ..      BLE      0x2d0 ; LCD_DrawLine + 156
        0x000002c4:    9802        ..      LDR      r0,[sp,#8]
        0x000002c6:    1b00        ..      SUBS     r0,r0,r4
        0x000002c8:    9002        ..      STR      r0,[sp,#8]
        0x000002ca:    9800        ..      LDR      r0,[sp,#0]
        0x000002cc:    4440        @D      ADD      r0,r0,r8
        0x000002ce:    9000        ..      STR      r0,[sp,#0]
        0x000002d0:    f10b0001    ....    ADD      r0,r11,#1
        0x000002d4:    fa1ffb80    ....    UXTH     r11,r0
        0x000002d8:    1c60        `.      ADDS     r0,r4,#1
        0x000002da:    4583        .E      CMP      r11,r0
        0x000002dc:    ddda        ..      BLE      0x294 ; LCD_DrawLine + 96
        0x000002de:    b008        ..      ADD      sp,sp,#0x20
        0x000002e0:    e8bd8ff0    ....    POP      {r4-r11,pc}
    i.LCD_DrawLine_color
    LCD_DrawLine_color
        0x000002e4:    e92d4fff    -..O    PUSH     {r0-r11,lr}
        0x000002e8:    b084        ..      SUB      sp,sp,#0x10
        0x000002ea:    4681        .F      MOV      r9,r0
        0x000002ec:    468a        .F      MOV      r10,r1
        0x000002ee:    2000        .       MOVS     r0,#0
        0x000002f0:    9002        ..      STR      r0,[sp,#8]
        0x000002f2:    4683        .F      MOV      r11,r0
        0x000002f4:    9806        ..      LDR      r0,[sp,#0x18]
        0x000002f6:    eba00509    ....    SUB      r5,r0,r9
        0x000002fa:    9807        ..      LDR      r0,[sp,#0x1c]
        0x000002fc:    eba0060a    ....    SUB      r6,r0,r10
        0x00000300:    f8cd9004    ....    STR      r9,[sp,#4]
        0x00000304:    f8cda000    ....    STR      r10,[sp,#0]
        0x00000308:    2d00        .-      CMP      r5,#0
        0x0000030a:    dd01        ..      BLE      0x310 ; LCD_DrawLine_color + 44
        0x0000030c:    2701        .'      MOVS     r7,#1
        0x0000030e:    e005        ..      B        0x31c ; LCD_DrawLine_color + 56
        0x00000310:    b90d        ..      CBNZ     r5,0x316 ; LCD_DrawLine_color + 50
        0x00000312:    2700        .'      MOVS     r7,#0
        0x00000314:    e002        ..      B        0x31c ; LCD_DrawLine_color + 56
        0x00000316:    f04f37ff    O..7    MOV      r7,#0xffffffff
        0x0000031a:    426d        mB      RSBS     r5,r5,#0
        0x0000031c:    2e00        ..      CMP      r6,#0
        0x0000031e:    dd02        ..      BLE      0x326 ; LCD_DrawLine_color + 66
        0x00000320:    f04f0801    O...    MOV      r8,#1
        0x00000324:    e006        ..      B        0x334 ; LCD_DrawLine_color + 80
        0x00000326:    b916        ..      CBNZ     r6,0x32e ; LCD_DrawLine_color + 74
        0x00000328:    f04f0800    O...    MOV      r8,#0
        0x0000032c:    e002        ..      B        0x334 ; LCD_DrawLine_color + 80
        0x0000032e:    f04f38ff    O..8    MOV      r8,#0xffffffff
        0x00000332:    4276        vB      RSBS     r6,r6,#0
        0x00000334:    42b5        .B      CMP      r5,r6
        0x00000336:    dd01        ..      BLE      0x33c ; LCD_DrawLine_color + 88
        0x00000338:    462c        ,F      MOV      r4,r5
        0x0000033a:    e000        ..      B        0x33e ; LCD_DrawLine_color + 90
        0x0000033c:    4634        4F      MOV      r4,r6
        0x0000033e:    2000        .       MOVS     r0,#0
        0x00000340:    9003        ..      STR      r0,[sp,#0xc]
        0x00000342:    e01e        ..      B        0x382 ; LCD_DrawLine_color + 158
        0x00000344:    9a00        ..      LDR      r2,[sp,#0]
        0x00000346:    b291        ..      UXTH     r1,r2
        0x00000348:    9a01        ..      LDR      r2,[sp,#4]
        0x0000034a:    b290        ..      UXTH     r0,r2
        0x0000034c:    9a11        ..      LDR      r2,[sp,#0x44]
        0x0000034e:    f000f839    ..9.    BL       LCD_Fast_DrawPoint ; 0x3c4
        0x00000352:    9802        ..      LDR      r0,[sp,#8]
        0x00000354:    4428        (D      ADD      r0,r0,r5
        0x00000356:    9002        ..      STR      r0,[sp,#8]
        0x00000358:    44b3        .D      ADD      r11,r11,r6
        0x0000035a:    9802        ..      LDR      r0,[sp,#8]
        0x0000035c:    42a0        .B      CMP      r0,r4
        0x0000035e:    dd05        ..      BLE      0x36c ; LCD_DrawLine_color + 136
        0x00000360:    9802        ..      LDR      r0,[sp,#8]
        0x00000362:    1b00        ..      SUBS     r0,r0,r4
        0x00000364:    9002        ..      STR      r0,[sp,#8]
        0x00000366:    9801        ..      LDR      r0,[sp,#4]
        0x00000368:    4438        8D      ADD      r0,r0,r7
        0x0000036a:    9001        ..      STR      r0,[sp,#4]
        0x0000036c:    45a3        .E      CMP      r11,r4
        0x0000036e:    dd04        ..      BLE      0x37a ; LCD_DrawLine_color + 150
        0x00000370:    ebab0b04    ....    SUB      r11,r11,r4
        0x00000374:    9800        ..      LDR      r0,[sp,#0]
        0x00000376:    4440        @D      ADD      r0,r0,r8
        0x00000378:    9000        ..      STR      r0,[sp,#0]
        0x0000037a:    9803        ..      LDR      r0,[sp,#0xc]
        0x0000037c:    1c40        @.      ADDS     r0,r0,#1
        0x0000037e:    b280        ..      UXTH     r0,r0
        0x00000380:    9003        ..      STR      r0,[sp,#0xc]
        0x00000382:    1c61        a.      ADDS     r1,r4,#1
        0x00000384:    9803        ..      LDR      r0,[sp,#0xc]
        0x00000386:    4288        .B      CMP      r0,r1
        0x00000388:    dddc        ..      BLE      0x344 ; LCD_DrawLine_color + 96
        0x0000038a:    b008        ..      ADD      sp,sp,#0x20
        0x0000038c:    e8bd8ff0    ....    POP      {r4-r11,pc}
    i.LCD_DrawPoint
    LCD_DrawPoint
        0x00000390:    b530        0.      PUSH     {r4,r5,lr}
        0x00000392:    4604        .F      MOV      r4,r0
        0x00000394:    460d        .F      MOV      r5,r1
        0x00000396:    4629        )F      MOV      r1,r5
        0x00000398:    4620         F      MOV      r0,r4
        0x0000039a:    f000fcf5    ....    BL       LCD_SetCursor ; 0xd88
        0x0000039e:    f000fe95    ....    BL       LCD_WriteRAM_Prepare ; 0x10cc
        0x000003a2:    2001        .       MOVS     r0,#1
        0x000003a4:    4906        .I      LDR      r1,[pc,#24] ; [0x3c0] = 0x40003000
        0x000003a6:    6048        H`      STR      r0,[r1,#4]
        0x000003a8:    2000        .       MOVS     r0,#0
        0x000003aa:    6008        .`      STR      r0,[r1,#0]
        0x000003ac:    f000feae    ....    BL       MakeData ; 0x110c
        0x000003b0:    2000        .       MOVS     r0,#0
        0x000003b2:    4903        .I      LDR      r1,[pc,#12] ; [0x3c0] = 0x40003000
        0x000003b4:    6088        .`      STR      r0,[r1,#8]
        0x000003b6:    2001        .       MOVS     r0,#1
        0x000003b8:    6088        .`      STR      r0,[r1,#8]
        0x000003ba:    6008        .`      STR      r0,[r1,#0]
        0x000003bc:    bd30        0.      POP      {r4,r5,pc}
    $d
        0x000003be:    0000        ..      DCW    0
        0x000003c0:    40003000    .0.@    DCD    1073754112
    $t
    i.LCD_Fast_DrawPoint
    LCD_Fast_DrawPoint
        0x000003c4:    b570        p.      PUSH     {r4-r6,lr}
        0x000003c6:    4604        .F      MOV      r4,r0
        0x000003c8:    460d        .F      MOV      r5,r1
        0x000003ca:    4616        .F      MOV      r6,r2
        0x000003cc:    492a        *I      LDR      r1,[pc,#168] ; [0x478] = 0x20000014
        0x000003ce:    8948        H.      LDRH     r0,[r1,#0xa]
        0x000003d0:    f000fe60    ..`.    BL       LCD_WR_REG ; 0x1094
        0x000003d4:    2001        .       MOVS     r0,#1
        0x000003d6:    4929        )I      LDR      r1,[pc,#164] ; [0x47c] = 0x40003000
        0x000003d8:    6048        H`      STR      r0,[r1,#4]
        0x000003da:    2000        .       MOVS     r0,#0
        0x000003dc:    6008        .`      STR      r0,[r1,#0]
        0x000003de:    1220         .      ASRS     r0,r4,#8
        0x000003e0:    f000fe94    ....    BL       MakeData ; 0x110c
        0x000003e4:    2000        .       MOVS     r0,#0
        0x000003e6:    4925        %I      LDR      r1,[pc,#148] ; [0x47c] = 0x40003000
        0x000003e8:    6088        .`      STR      r0,[r1,#8]
        0x000003ea:    2001        .       MOVS     r0,#1
        0x000003ec:    6088        .`      STR      r0,[r1,#8]
        0x000003ee:    6008        .`      STR      r0,[r1,#0]
        0x000003f0:    6048        H`      STR      r0,[r1,#4]
        0x000003f2:    2000        .       MOVS     r0,#0
        0x000003f4:    6008        .`      STR      r0,[r1,#0]
        0x000003f6:    b2e0        ..      UXTB     r0,r4
        0x000003f8:    f000fe88    ....    BL       MakeData ; 0x110c
        0x000003fc:    2000        .       MOVS     r0,#0
        0x000003fe:    491f        .I      LDR      r1,[pc,#124] ; [0x47c] = 0x40003000
        0x00000400:    6088        .`      STR      r0,[r1,#8]
        0x00000402:    2001        .       MOVS     r0,#1
        0x00000404:    6088        .`      STR      r0,[r1,#8]
        0x00000406:    6008        .`      STR      r0,[r1,#0]
        0x00000408:    491b        .I      LDR      r1,[pc,#108] ; [0x478] = 0x20000014
        0x0000040a:    8988        ..      LDRH     r0,[r1,#0xc]
        0x0000040c:    f000fe42    ..B.    BL       LCD_WR_REG ; 0x1094
        0x00000410:    2001        .       MOVS     r0,#1
        0x00000412:    491a        .I      LDR      r1,[pc,#104] ; [0x47c] = 0x40003000
        0x00000414:    6048        H`      STR      r0,[r1,#4]
        0x00000416:    2000        .       MOVS     r0,#0
        0x00000418:    6008        .`      STR      r0,[r1,#0]
        0x0000041a:    1228        (.      ASRS     r0,r5,#8
        0x0000041c:    f000fe76    ..v.    BL       MakeData ; 0x110c
        0x00000420:    2000        .       MOVS     r0,#0
        0x00000422:    4916        .I      LDR      r1,[pc,#88] ; [0x47c] = 0x40003000
        0x00000424:    6088        .`      STR      r0,[r1,#8]
        0x00000426:    2001        .       MOVS     r0,#1
        0x00000428:    6088        .`      STR      r0,[r1,#8]
        0x0000042a:    6008        .`      STR      r0,[r1,#0]
        0x0000042c:    6048        H`      STR      r0,[r1,#4]
        0x0000042e:    2000        .       MOVS     r0,#0
        0x00000430:    6008        .`      STR      r0,[r1,#0]
        0x00000432:    b2e8        ..      UXTB     r0,r5
        0x00000434:    f000fe6a    ..j.    BL       MakeData ; 0x110c
        0x00000438:    2000        .       MOVS     r0,#0
        0x0000043a:    4910        .I      LDR      r1,[pc,#64] ; [0x47c] = 0x40003000
        0x0000043c:    6088        .`      STR      r0,[r1,#8]
        0x0000043e:    2001        .       MOVS     r0,#1
        0x00000440:    6088        .`      STR      r0,[r1,#8]
        0x00000442:    6008        .`      STR      r0,[r1,#0]
        0x00000444:    2000        .       MOVS     r0,#0
        0x00000446:    6048        H`      STR      r0,[r1,#4]
        0x00000448:    6008        .`      STR      r0,[r1,#0]
        0x0000044a:    490b        .I      LDR      r1,[pc,#44] ; [0x478] = 0x20000014
        0x0000044c:    8908        ..      LDRH     r0,[r1,#8]
        0x0000044e:    f000fe5d    ..].    BL       MakeData ; 0x110c
        0x00000452:    2000        .       MOVS     r0,#0
        0x00000454:    4909        .I      LDR      r1,[pc,#36] ; [0x47c] = 0x40003000
        0x00000456:    6088        .`      STR      r0,[r1,#8]
        0x00000458:    2001        .       MOVS     r0,#1
        0x0000045a:    6088        .`      STR      r0,[r1,#8]
        0x0000045c:    6008        .`      STR      r0,[r1,#0]
        0x0000045e:    6048        H`      STR      r0,[r1,#4]
        0x00000460:    2000        .       MOVS     r0,#0
        0x00000462:    6008        .`      STR      r0,[r1,#0]
        0x00000464:    4630        0F      MOV      r0,r6
        0x00000466:    f000fe51    ..Q.    BL       MakeData ; 0x110c
        0x0000046a:    2000        .       MOVS     r0,#0
        0x0000046c:    4903        .I      LDR      r1,[pc,#12] ; [0x47c] = 0x40003000
        0x0000046e:    6088        .`      STR      r0,[r1,#8]
        0x00000470:    2001        .       MOVS     r0,#1
        0x00000472:    6088        .`      STR      r0,[r1,#8]
        0x00000474:    6008        .`      STR      r0,[r1,#0]
        0x00000476:    bd70        p.      POP      {r4-r6,pc}
    $d
        0x00000478:    20000014    ...     DCD    536870932
        0x0000047c:    40003000    .0.@    DCD    1073754112
    $t
    i.LCD_Fill
    LCD_Fill
        0x00000480:    e92d4ff0    -..O    PUSH     {r4-r11,lr}
        0x00000484:    4605        .F      MOV      r5,r0
        0x00000486:    460e        .F      MOV      r6,r1
        0x00000488:    4617        .F      MOV      r7,r2
        0x0000048a:    4698        .F      MOV      r8,r3
        0x0000048c:    f8dda024    ..$.    LDR      r10,[sp,#0x24]
        0x00000490:    f04f0b00    O...    MOV      r11,#0
        0x00000494:    1b78        x.      SUBS     r0,r7,r5
        0x00000496:    1c40        @.      ADDS     r0,r0,#1
        0x00000498:    fa1ffb80    ....    UXTH     r11,r0
        0x0000049c:    4634        4F      MOV      r4,r6
        0x0000049e:    e01e        ..      B        0x4de ; LCD_Fill + 94
        0x000004a0:    4621        !F      MOV      r1,r4
        0x000004a2:    4628        (F      MOV      r0,r5
        0x000004a4:    f000fc70    ..p.    BL       LCD_SetCursor ; 0xd88
        0x000004a8:    f000fe10    ....    BL       LCD_WriteRAM_Prepare ; 0x10cc
        0x000004ac:    f04f0900    O...    MOV      r9,#0
        0x000004b0:    e011        ..      B        0x4d6 ; LCD_Fill + 86
        0x000004b2:    2001        .       MOVS     r0,#1
        0x000004b4:    490c        .I      LDR      r1,[pc,#48] ; [0x4e8] = 0x40003000
        0x000004b6:    6048        H`      STR      r0,[r1,#4]
        0x000004b8:    2000        .       MOVS     r0,#0
        0x000004ba:    6008        .`      STR      r0,[r1,#0]
        0x000004bc:    4650        PF      MOV      r0,r10
        0x000004be:    f000fe25    ..%.    BL       MakeData ; 0x110c
        0x000004c2:    2000        .       MOVS     r0,#0
        0x000004c4:    4908        .I      LDR      r1,[pc,#32] ; [0x4e8] = 0x40003000
        0x000004c6:    6088        .`      STR      r0,[r1,#8]
        0x000004c8:    2001        .       MOVS     r0,#1
        0x000004ca:    6088        .`      STR      r0,[r1,#8]
        0x000004cc:    6008        .`      STR      r0,[r1,#0]
        0x000004ce:    f1090001    ....    ADD      r0,r9,#1
        0x000004d2:    fa1ff980    ....    UXTH     r9,r0
        0x000004d6:    45d9        .E      CMP      r9,r11
        0x000004d8:    dbeb        ..      BLT      0x4b2 ; LCD_Fill + 50
        0x000004da:    1c60        `.      ADDS     r0,r4,#1
        0x000004dc:    b284        ..      UXTH     r4,r0
        0x000004de:    4544        DE      CMP      r4,r8
        0x000004e0:    ddde        ..      BLE      0x4a0 ; LCD_Fill + 32
        0x000004e2:    e8bd8ff0    ....    POP      {r4-r11,pc}
    $d
        0x000004e6:    0000        ..      DCW    0
        0x000004e8:    40003000    .0.@    DCD    1073754112
    $t
    i.LCD_Init
    LCD_Init
        0x000004ec:    b500        ..      PUSH     {lr}
        0x000004ee:    48fe        .H      LDR      r0,[pc,#1016] ; [0x8e8] = 0x2625a0
        0x000004f0:    f001f93a    ..:.    BL       delay ; 0x1768
        0x000004f4:    20d3        .       MOVS     r0,#0xd3
        0x000004f6:    f000fdcd    ....    BL       LCD_WR_REG ; 0x1094
        0x000004fa:    f000fa17    ....    BL       LCD_RD_DATA ; 0x92c
        0x000004fe:    49fb        .I      LDR      r1,[pc,#1004] ; [0x8ec] = 0x20000014
        0x00000500:    8088        ..      STRH     r0,[r1,#4]
        0x00000502:    f000fa13    ....    BL       LCD_RD_DATA ; 0x92c
        0x00000506:    49f9        .I      LDR      r1,[pc,#996] ; [0x8ec] = 0x20000014
        0x00000508:    8088        ..      STRH     r0,[r1,#4]
        0x0000050a:    f000fa0f    ....    BL       LCD_RD_DATA ; 0x92c
        0x0000050e:    49f7        .I      LDR      r1,[pc,#988] ; [0x8ec] = 0x20000014
        0x00000510:    8088        ..      STRH     r0,[r1,#4]
        0x00000512:    4608        .F      MOV      r0,r1
        0x00000514:    8880        ..      LDRH     r0,[r0,#4]
        0x00000516:    f64f71ff    O..q    MOV      r1,#0xffff
        0x0000051a:    ea012000    ...     AND      r0,r1,r0,LSL #8
        0x0000051e:    49f3        .I      LDR      r1,[pc,#972] ; [0x8ec] = 0x20000014
        0x00000520:    8088        ..      STRH     r0,[r1,#4]
        0x00000522:    f000fa03    ....    BL       LCD_RD_DATA ; 0x92c
        0x00000526:    49f1        .I      LDR      r1,[pc,#964] ; [0x8ec] = 0x20000014
        0x00000528:    8889        ..      LDRH     r1,[r1,#4]
        0x0000052a:    4308        .C      ORRS     r0,r0,r1
        0x0000052c:    49ef        .I      LDR      r1,[pc,#956] ; [0x8ec] = 0x20000014
        0x0000052e:    8088        ..      STRH     r0,[r1,#4]
        0x00000530:    4608        .F      MOV      r0,r1
        0x00000532:    8880        ..      LDRH     r0,[r0,#4]
        0x00000534:    f2493141    I.A1    MOV      r1,#0x9341
        0x00000538:    4288        .B      CMP      r0,r1
        0x0000053a:    d07d        }.      BEQ      0x638 ; LCD_Init + 332
        0x0000053c:    2004        .       MOVS     r0,#4
        0x0000053e:    f000fda9    ....    BL       LCD_WR_REG ; 0x1094
        0x00000542:    f000f9f3    ....    BL       LCD_RD_DATA ; 0x92c
        0x00000546:    49e9        .I      LDR      r1,[pc,#932] ; [0x8ec] = 0x20000014
        0x00000548:    8088        ..      STRH     r0,[r1,#4]
        0x0000054a:    f000f9ef    ....    BL       LCD_RD_DATA ; 0x92c
        0x0000054e:    49e7        .I      LDR      r1,[pc,#924] ; [0x8ec] = 0x20000014
        0x00000550:    8088        ..      STRH     r0,[r1,#4]
        0x00000552:    f000f9eb    ....    BL       LCD_RD_DATA ; 0x92c
        0x00000556:    49e5        .I      LDR      r1,[pc,#916] ; [0x8ec] = 0x20000014
        0x00000558:    8088        ..      STRH     r0,[r1,#4]
        0x0000055a:    4608        .F      MOV      r0,r1
        0x0000055c:    8880        ..      LDRH     r0,[r0,#4]
        0x0000055e:    f64f71ff    O..q    MOV      r1,#0xffff
        0x00000562:    ea012000    ...     AND      r0,r1,r0,LSL #8
        0x00000566:    49e1        .I      LDR      r1,[pc,#900] ; [0x8ec] = 0x20000014
        0x00000568:    8088        ..      STRH     r0,[r1,#4]
        0x0000056a:    f000f9df    ....    BL       LCD_RD_DATA ; 0x92c
        0x0000056e:    49df        .I      LDR      r1,[pc,#892] ; [0x8ec] = 0x20000014
        0x00000570:    8889        ..      LDRH     r1,[r1,#4]
        0x00000572:    4308        .C      ORRS     r0,r0,r1
        0x00000574:    49dd        .I      LDR      r1,[pc,#884] ; [0x8ec] = 0x20000014
        0x00000576:    8088        ..      STRH     r0,[r1,#4]
        0x00000578:    4608        .F      MOV      r0,r1
        0x0000057a:    8880        ..      LDRH     r0,[r0,#4]
        0x0000057c:    f2485152    H.RQ    MOV      r1,#0x8552
        0x00000580:    4288        .B      CMP      r0,r1
        0x00000582:    d103        ..      BNE      0x58c ; LCD_Init + 160
        0x00000584:    f2477089    G..p    MOV      r0,#0x7789
        0x00000588:    49d8        .I      LDR      r1,[pc,#864] ; [0x8ec] = 0x20000014
        0x0000058a:    8088        ..      STRH     r0,[r1,#4]
        0x0000058c:    48d7        .H      LDR      r0,[pc,#860] ; [0x8ec] = 0x20000014
        0x0000058e:    8880        ..      LDRH     r0,[r0,#4]
        0x00000590:    f2477189    G..q    MOV      r1,#0x7789
        0x00000594:    4288        .B      CMP      r0,r1
        0x00000596:    d0d0        ..      BEQ      0x53a ; LCD_Init + 78
        0x00000598:    20d4        .       MOVS     r0,#0xd4
        0x0000059a:    f000fd7b    ..{.    BL       LCD_WR_REG ; 0x1094
        0x0000059e:    f000f9c5    ....    BL       LCD_RD_DATA ; 0x92c
        0x000005a2:    49d2        .I      LDR      r1,[pc,#840] ; [0x8ec] = 0x20000014
        0x000005a4:    8088        ..      STRH     r0,[r1,#4]
        0x000005a6:    f000f9c1    ....    BL       LCD_RD_DATA ; 0x92c
        0x000005aa:    49d0        .I      LDR      r1,[pc,#832] ; [0x8ec] = 0x20000014
        0x000005ac:    8088        ..      STRH     r0,[r1,#4]
        0x000005ae:    f000f9bd    ....    BL       LCD_RD_DATA ; 0x92c
        0x000005b2:    49ce        .I      LDR      r1,[pc,#824] ; [0x8ec] = 0x20000014
        0x000005b4:    8088        ..      STRH     r0,[r1,#4]
        0x000005b6:    4608        .F      MOV      r0,r1
        0x000005b8:    8880        ..      LDRH     r0,[r0,#4]
        0x000005ba:    f64f71ff    O..q    MOV      r1,#0xffff
        0x000005be:    ea012000    ...     AND      r0,r1,r0,LSL #8
        0x000005c2:    49ca        .I      LDR      r1,[pc,#808] ; [0x8ec] = 0x20000014
        0x000005c4:    8088        ..      STRH     r0,[r1,#4]
        0x000005c6:    f000f9b1    ....    BL       LCD_RD_DATA ; 0x92c
        0x000005ca:    49c8        .I      LDR      r1,[pc,#800] ; [0x8ec] = 0x20000014
        0x000005cc:    8889        ..      LDRH     r1,[r1,#4]
        0x000005ce:    4308        .C      ORRS     r0,r0,r1
        0x000005d0:    49c6        .I      LDR      r1,[pc,#792] ; [0x8ec] = 0x20000014
        0x000005d2:    8088        ..      STRH     r0,[r1,#4]
        0x000005d4:    4608        .F      MOV      r0,r1
        0x000005d6:    8880        ..      LDRH     r0,[r0,#4]
        0x000005d8:    f2453110    E..1    MOV      r1,#0x5310
        0x000005dc:    4288        .B      CMP      r0,r1
        0x000005de:    d062        b.      BEQ      0x6a6 ; LCD_Init + 442
        0x000005e0:    2155        U!      MOVS     r1,#0x55
        0x000005e2:    f44f4070    O.p@    MOV      r0,#0xf000
        0x000005e6:    f000fd79    ..y.    BL       LCD_WriteReg ; 0x10dc
        0x000005ea:    21aa        .!      MOVS     r1,#0xaa
        0x000005ec:    f24f0001    O...    MOV      r0,#0xf001
        0x000005f0:    f000fd74    ..t.    BL       LCD_WriteReg ; 0x10dc
        0x000005f4:    2152        R!      MOVS     r1,#0x52
        0x000005f6:    f24f0002    O...    MOV      r0,#0xf002
        0x000005fa:    f000fd6f    ..o.    BL       LCD_WriteReg ; 0x10dc
        0x000005fe:    2108        .!      MOVS     r1,#8
        0x00000600:    f24f0003    O...    MOV      r0,#0xf003
        0x00000604:    f000fd6a    ..j.    BL       LCD_WriteReg ; 0x10dc
        0x00000608:    2101        .!      MOVS     r1,#1
        0x0000060a:    f24f0004    O...    MOV      r0,#0xf004
        0x0000060e:    f000fd65    ..e.    BL       LCD_WriteReg ; 0x10dc
        0x00000612:    f44f4045    O.E@    MOV      r0,#0xc500
        0x00000616:    f000fd3d    ..=.    BL       LCD_WR_REG ; 0x1094
        0x0000061a:    f000f987    ....    BL       LCD_RD_DATA ; 0x92c
        0x0000061e:    49b3        .I      LDR      r1,[pc,#716] ; [0x8ec] = 0x20000014
        0x00000620:    8088        ..      STRH     r0,[r1,#4]
        0x00000622:    4608        .F      MOV      r0,r1
        0x00000624:    8880        ..      LDRH     r0,[r0,#4]
        0x00000626:    f64f71ff    O..q    MOV      r1,#0xffff
        0x0000062a:    ea012000    ...     AND      r0,r1,r0,LSL #8
        0x0000062e:    49af        .I      LDR      r1,[pc,#700] ; [0x8ec] = 0x20000014
        0x00000630:    8088        ..      STRH     r0,[r1,#4]
        0x00000632:    f24c5001    L..P    MOV      r0,#0xc501
        0x00000636:    e000        ..      B        0x63a ; LCD_Init + 334
        0x00000638:    e035        5.      B        0x6a6 ; LCD_Init + 442
        0x0000063a:    f000fd2b    ..+.    BL       LCD_WR_REG ; 0x1094
        0x0000063e:    f000f975    ..u.    BL       LCD_RD_DATA ; 0x92c
        0x00000642:    49aa        .I      LDR      r1,[pc,#680] ; [0x8ec] = 0x20000014
        0x00000644:    8889        ..      LDRH     r1,[r1,#4]
        0x00000646:    4308        .C      ORRS     r0,r0,r1
        0x00000648:    49a8        .I      LDR      r1,[pc,#672] ; [0x8ec] = 0x20000014
        0x0000064a:    8088        ..      STRH     r0,[r1,#4]
        0x0000064c:    48a8        .H      LDR      r0,[pc,#672] ; [0x8f0] = 0x3d090
        0x0000064e:    f001f88b    ....    BL       delay ; 0x1768
        0x00000652:    48a6        .H      LDR      r0,[pc,#664] ; [0x8ec] = 0x20000014
        0x00000654:    8880        ..      LDRH     r0,[r0,#4]
        0x00000656:    f2455110    E..Q    MOV      r1,#0x5510
        0x0000065a:    4288        .B      CMP      r0,r1
        0x0000065c:    d023        #.      BEQ      0x6a6 ; LCD_Init + 442
        0x0000065e:    20a1        .       MOVS     r0,#0xa1
        0x00000660:    f000fd18    ....    BL       LCD_WR_REG ; 0x1094
        0x00000664:    f000f962    ..b.    BL       LCD_RD_DATA ; 0x92c
        0x00000668:    49a0        .I      LDR      r1,[pc,#640] ; [0x8ec] = 0x20000014
        0x0000066a:    8088        ..      STRH     r0,[r1,#4]
        0x0000066c:    f000f95e    ..^.    BL       LCD_RD_DATA ; 0x92c
        0x00000670:    499e        .I      LDR      r1,[pc,#632] ; [0x8ec] = 0x20000014
        0x00000672:    8088        ..      STRH     r0,[r1,#4]
        0x00000674:    4608        .F      MOV      r0,r1
        0x00000676:    8880        ..      LDRH     r0,[r0,#4]
        0x00000678:    f64f71ff    O..q    MOV      r1,#0xffff
        0x0000067c:    ea012000    ...     AND      r0,r1,r0,LSL #8
        0x00000680:    499a        .I      LDR      r1,[pc,#616] ; [0x8ec] = 0x20000014
        0x00000682:    8088        ..      STRH     r0,[r1,#4]
        0x00000684:    f000f952    ..R.    BL       LCD_RD_DATA ; 0x92c
        0x00000688:    4998        .I      LDR      r1,[pc,#608] ; [0x8ec] = 0x20000014
        0x0000068a:    8889        ..      LDRH     r1,[r1,#4]
        0x0000068c:    4308        .C      ORRS     r0,r0,r1
        0x0000068e:    4997        .I      LDR      r1,[pc,#604] ; [0x8ec] = 0x20000014
        0x00000690:    8088        ..      STRH     r0,[r1,#4]
        0x00000692:    4608        .F      MOV      r0,r1
        0x00000694:    8880        ..      LDRH     r0,[r0,#4]
        0x00000696:    f2457161    E.aq    MOV      r1,#0x5761
        0x0000069a:    4288        .B      CMP      r0,r1
        0x0000069c:    d103        ..      BNE      0x6a6 ; LCD_Init + 442
        0x0000069e:    f6411063    A.c.    MOV      r0,#0x1963
        0x000006a2:    4992        .I      LDR      r1,[pc,#584] ; [0x8ec] = 0x20000014
        0x000006a4:    8088        ..      STRH     r0,[r1,#4]
        0x000006a6:    f2493041    I.A0    MOV      r0,#0x9341
        0x000006aa:    4990        .I      LDR      r1,[pc,#576] ; [0x8ec] = 0x20000014
        0x000006ac:    8088        ..      STRH     r0,[r1,#4]
        0x000006ae:    4608        .F      MOV      r0,r1
        0x000006b0:    8880        ..      LDRH     r0,[r0,#4]
        0x000006b2:    f2493141    I.A1    MOV      r1,#0x9341
        0x000006b6:    4288        .B      CMP      r0,r1
        0x000006b8:    d17e        ~.      BNE      0x7b8 ; LCD_Init + 716
        0x000006ba:    20cf        .       MOVS     r0,#0xcf
        0x000006bc:    f000fcea    ....    BL       LCD_WR_REG ; 0x1094
        0x000006c0:    2000        .       MOVS     r0,#0
        0x000006c2:    f000fccb    ....    BL       LCD_WR_DATAX ; 0x105c
        0x000006c6:    20c1        .       MOVS     r0,#0xc1
        0x000006c8:    f000fcc8    ....    BL       LCD_WR_DATAX ; 0x105c
        0x000006cc:    2030        0       MOVS     r0,#0x30
        0x000006ce:    f000fcc5    ....    BL       LCD_WR_DATAX ; 0x105c
        0x000006d2:    20ed        .       MOVS     r0,#0xed
        0x000006d4:    f000fcde    ....    BL       LCD_WR_REG ; 0x1094
        0x000006d8:    2064        d       MOVS     r0,#0x64
        0x000006da:    f000fcbf    ....    BL       LCD_WR_DATAX ; 0x105c
        0x000006de:    2003        .       MOVS     r0,#3
        0x000006e0:    f000fcbc    ....    BL       LCD_WR_DATAX ; 0x105c
        0x000006e4:    2012        .       MOVS     r0,#0x12
        0x000006e6:    f000fcb9    ....    BL       LCD_WR_DATAX ; 0x105c
        0x000006ea:    2081        .       MOVS     r0,#0x81
        0x000006ec:    f000fcb6    ....    BL       LCD_WR_DATAX ; 0x105c
        0x000006f0:    20e8        .       MOVS     r0,#0xe8
        0x000006f2:    f000fccf    ....    BL       LCD_WR_REG ; 0x1094
        0x000006f6:    2085        .       MOVS     r0,#0x85
        0x000006f8:    f000fcb0    ....    BL       LCD_WR_DATAX ; 0x105c
        0x000006fc:    2010        .       MOVS     r0,#0x10
        0x000006fe:    f000fcad    ....    BL       LCD_WR_DATAX ; 0x105c
        0x00000702:    207a        z       MOVS     r0,#0x7a
        0x00000704:    f000fcaa    ....    BL       LCD_WR_DATAX ; 0x105c
        0x00000708:    20cb        .       MOVS     r0,#0xcb
        0x0000070a:    f000fcc3    ....    BL       LCD_WR_REG ; 0x1094
        0x0000070e:    2039        9       MOVS     r0,#0x39
        0x00000710:    f000fca4    ....    BL       LCD_WR_DATAX ; 0x105c
        0x00000714:    202c        ,       MOVS     r0,#0x2c
        0x00000716:    f000fca1    ....    BL       LCD_WR_DATAX ; 0x105c
        0x0000071a:    2000        .       MOVS     r0,#0
        0x0000071c:    f000fc9e    ....    BL       LCD_WR_DATAX ; 0x105c
        0x00000720:    2034        4       MOVS     r0,#0x34
        0x00000722:    f000fc9b    ....    BL       LCD_WR_DATAX ; 0x105c
        0x00000726:    2002        .       MOVS     r0,#2
        0x00000728:    f000fc98    ....    BL       LCD_WR_DATAX ; 0x105c
        0x0000072c:    20f7        .       MOVS     r0,#0xf7
        0x0000072e:    f000fcb1    ....    BL       LCD_WR_REG ; 0x1094
        0x00000732:    2020                MOVS     r0,#0x20
        0x00000734:    f000fc92    ....    BL       LCD_WR_DATAX ; 0x105c
        0x00000738:    20ea        .       MOVS     r0,#0xea
        0x0000073a:    f000fcab    ....    BL       LCD_WR_REG ; 0x1094
        0x0000073e:    2000        .       MOVS     r0,#0
        0x00000740:    f000fc8c    ....    BL       LCD_WR_DATAX ; 0x105c
        0x00000744:    2000        .       MOVS     r0,#0
        0x00000746:    f000fc89    ....    BL       LCD_WR_DATAX ; 0x105c
        0x0000074a:    20c0        .       MOVS     r0,#0xc0
        0x0000074c:    f000fca2    ....    BL       LCD_WR_REG ; 0x1094
        0x00000750:    201b        .       MOVS     r0,#0x1b
        0x00000752:    f000fc83    ....    BL       LCD_WR_DATAX ; 0x105c
        0x00000756:    20c1        .       MOVS     r0,#0xc1
        0x00000758:    f000fc9c    ....    BL       LCD_WR_REG ; 0x1094
        0x0000075c:    2001        .       MOVS     r0,#1
        0x0000075e:    f000fc7d    ..}.    BL       LCD_WR_DATAX ; 0x105c
        0x00000762:    20c5        .       MOVS     r0,#0xc5
        0x00000764:    f000fc96    ....    BL       LCD_WR_REG ; 0x1094
        0x00000768:    2030        0       MOVS     r0,#0x30
        0x0000076a:    f000fc77    ..w.    BL       LCD_WR_DATAX ; 0x105c
        0x0000076e:    2030        0       MOVS     r0,#0x30
        0x00000770:    f000fc74    ..t.    BL       LCD_WR_DATAX ; 0x105c
        0x00000774:    20c7        .       MOVS     r0,#0xc7
        0x00000776:    f000fc8d    ....    BL       LCD_WR_REG ; 0x1094
        0x0000077a:    20b7        .       MOVS     r0,#0xb7
        0x0000077c:    f000fc6e    ..n.    BL       LCD_WR_DATAX ; 0x105c
        0x00000780:    2036        6       MOVS     r0,#0x36
        0x00000782:    f000fc87    ....    BL       LCD_WR_REG ; 0x1094
        0x00000786:    2048        H       MOVS     r0,#0x48
        0x00000788:    f000fc68    ..h.    BL       LCD_WR_DATAX ; 0x105c
        0x0000078c:    203a        :       MOVS     r0,#0x3a
        0x0000078e:    f000fc81    ....    BL       LCD_WR_REG ; 0x1094
        0x00000792:    2055        U       MOVS     r0,#0x55
        0x00000794:    f000fc62    ..b.    BL       LCD_WR_DATAX ; 0x105c
        0x00000798:    20b1        .       MOVS     r0,#0xb1
        0x0000079a:    f000fc7b    ..{.    BL       LCD_WR_REG ; 0x1094
        0x0000079e:    2000        .       MOVS     r0,#0
        0x000007a0:    f000fc5c    ..\.    BL       LCD_WR_DATAX ; 0x105c
        0x000007a4:    201a        .       MOVS     r0,#0x1a
        0x000007a6:    f000fc59    ..Y.    BL       LCD_WR_DATAX ; 0x105c
        0x000007aa:    20b6        .       MOVS     r0,#0xb6
        0x000007ac:    f000fc72    ..r.    BL       LCD_WR_REG ; 0x1094
        0x000007b0:    200a        .       MOVS     r0,#0xa
        0x000007b2:    f000fc53    ..S.    BL       LCD_WR_DATAX ; 0x105c
        0x000007b6:    e000        ..      B        0x7ba ; LCD_Init + 718
        0x000007b8:    e095        ..      B        0x8e6 ; LCD_Init + 1018
        0x000007ba:    20a2        .       MOVS     r0,#0xa2
        0x000007bc:    f000fc4e    ..N.    BL       LCD_WR_DATAX ; 0x105c
        0x000007c0:    20f2        .       MOVS     r0,#0xf2
        0x000007c2:    f000fc67    ..g.    BL       LCD_WR_REG ; 0x1094
        0x000007c6:    2000        .       MOVS     r0,#0
        0x000007c8:    f000fc48    ..H.    BL       LCD_WR_DATAX ; 0x105c
        0x000007cc:    2026        &       MOVS     r0,#0x26
        0x000007ce:    f000fc61    ..a.    BL       LCD_WR_REG ; 0x1094
        0x000007d2:    2001        .       MOVS     r0,#1
        0x000007d4:    f000fc42    ..B.    BL       LCD_WR_DATAX ; 0x105c
        0x000007d8:    20e0        .       MOVS     r0,#0xe0
        0x000007da:    f000fc5b    ..[.    BL       LCD_WR_REG ; 0x1094
        0x000007de:    200f        .       MOVS     r0,#0xf
        0x000007e0:    f000fc3c    ..<.    BL       LCD_WR_DATAX ; 0x105c
        0x000007e4:    202a        *       MOVS     r0,#0x2a
        0x000007e6:    f000fc39    ..9.    BL       LCD_WR_DATAX ; 0x105c
        0x000007ea:    2028        (       MOVS     r0,#0x28
        0x000007ec:    f000fc36    ..6.    BL       LCD_WR_DATAX ; 0x105c
        0x000007f0:    2008        .       MOVS     r0,#8
        0x000007f2:    f000fc33    ..3.    BL       LCD_WR_DATAX ; 0x105c
        0x000007f6:    200e        .       MOVS     r0,#0xe
        0x000007f8:    f000fc30    ..0.    BL       LCD_WR_DATAX ; 0x105c
        0x000007fc:    2008        .       MOVS     r0,#8
        0x000007fe:    f000fc2d    ..-.    BL       LCD_WR_DATAX ; 0x105c
        0x00000802:    2054        T       MOVS     r0,#0x54
        0x00000804:    f000fc2a    ..*.    BL       LCD_WR_DATAX ; 0x105c
        0x00000808:    20a9        .       MOVS     r0,#0xa9
        0x0000080a:    f000fc27    ..'.    BL       LCD_WR_DATAX ; 0x105c
        0x0000080e:    2043        C       MOVS     r0,#0x43
        0x00000810:    f000fc24    ..$.    BL       LCD_WR_DATAX ; 0x105c
        0x00000814:    200a        .       MOVS     r0,#0xa
        0x00000816:    f000fc21    ..!.    BL       LCD_WR_DATAX ; 0x105c
        0x0000081a:    200f        .       MOVS     r0,#0xf
        0x0000081c:    f000fc1e    ....    BL       LCD_WR_DATAX ; 0x105c
        0x00000820:    2000        .       MOVS     r0,#0
        0x00000822:    f000fc1b    ....    BL       LCD_WR_DATAX ; 0x105c
        0x00000826:    2000        .       MOVS     r0,#0
        0x00000828:    f000fc18    ....    BL       LCD_WR_DATAX ; 0x105c
        0x0000082c:    2000        .       MOVS     r0,#0
        0x0000082e:    f000fc15    ....    BL       LCD_WR_DATAX ; 0x105c
        0x00000832:    2000        .       MOVS     r0,#0
        0x00000834:    f000fc12    ....    BL       LCD_WR_DATAX ; 0x105c
        0x00000838:    20e1        .       MOVS     r0,#0xe1
        0x0000083a:    f000fc2b    ..+.    BL       LCD_WR_REG ; 0x1094
        0x0000083e:    2000        .       MOVS     r0,#0
        0x00000840:    f000fc0c    ....    BL       LCD_WR_DATAX ; 0x105c
        0x00000844:    2015        .       MOVS     r0,#0x15
        0x00000846:    f000fc09    ....    BL       LCD_WR_DATAX ; 0x105c
        0x0000084a:    2017        .       MOVS     r0,#0x17
        0x0000084c:    f000fc06    ....    BL       LCD_WR_DATAX ; 0x105c
        0x00000850:    2007        .       MOVS     r0,#7
        0x00000852:    f000fc03    ....    BL       LCD_WR_DATAX ; 0x105c
        0x00000856:    2011        .       MOVS     r0,#0x11
        0x00000858:    f000fc00    ....    BL       LCD_WR_DATAX ; 0x105c
        0x0000085c:    2006        .       MOVS     r0,#6
        0x0000085e:    f000fbfd    ....    BL       LCD_WR_DATAX ; 0x105c
        0x00000862:    202b        +       MOVS     r0,#0x2b
        0x00000864:    f000fbfa    ....    BL       LCD_WR_DATAX ; 0x105c
        0x00000868:    2056        V       MOVS     r0,#0x56
        0x0000086a:    f000fbf7    ....    BL       LCD_WR_DATAX ; 0x105c
        0x0000086e:    203c        <       MOVS     r0,#0x3c
        0x00000870:    f000fbf4    ....    BL       LCD_WR_DATAX ; 0x105c
        0x00000874:    2005        .       MOVS     r0,#5
        0x00000876:    f000fbf1    ....    BL       LCD_WR_DATAX ; 0x105c
        0x0000087a:    2010        .       MOVS     r0,#0x10
        0x0000087c:    f000fbee    ....    BL       LCD_WR_DATAX ; 0x105c
        0x00000880:    200f        .       MOVS     r0,#0xf
        0x00000882:    f000fbeb    ....    BL       LCD_WR_DATAX ; 0x105c
        0x00000886:    203f        ?       MOVS     r0,#0x3f
        0x00000888:    f000fbe8    ....    BL       LCD_WR_DATAX ; 0x105c
        0x0000088c:    203f        ?       MOVS     r0,#0x3f
        0x0000088e:    f000fbe5    ....    BL       LCD_WR_DATAX ; 0x105c
        0x00000892:    200f        .       MOVS     r0,#0xf
        0x00000894:    f000fbe2    ....    BL       LCD_WR_DATAX ; 0x105c
        0x00000898:    202b        +       MOVS     r0,#0x2b
        0x0000089a:    f000fbfb    ....    BL       LCD_WR_REG ; 0x1094
        0x0000089e:    2000        .       MOVS     r0,#0
        0x000008a0:    f000fbdc    ....    BL       LCD_WR_DATAX ; 0x105c
        0x000008a4:    2000        .       MOVS     r0,#0
        0x000008a6:    f000fbd9    ....    BL       LCD_WR_DATAX ; 0x105c
        0x000008aa:    2001        .       MOVS     r0,#1
        0x000008ac:    f000fbd6    ....    BL       LCD_WR_DATAX ; 0x105c
        0x000008b0:    203f        ?       MOVS     r0,#0x3f
        0x000008b2:    f000fbd3    ....    BL       LCD_WR_DATAX ; 0x105c
        0x000008b6:    202a        *       MOVS     r0,#0x2a
        0x000008b8:    f000fbec    ....    BL       LCD_WR_REG ; 0x1094
        0x000008bc:    2000        .       MOVS     r0,#0
        0x000008be:    f000fbcd    ....    BL       LCD_WR_DATAX ; 0x105c
        0x000008c2:    2000        .       MOVS     r0,#0
        0x000008c4:    f000fbca    ....    BL       LCD_WR_DATAX ; 0x105c
        0x000008c8:    2000        .       MOVS     r0,#0
        0x000008ca:    f000fbc7    ....    BL       LCD_WR_DATAX ; 0x105c
        0x000008ce:    20ef        .       MOVS     r0,#0xef
        0x000008d0:    f000fbc4    ....    BL       LCD_WR_DATAX ; 0x105c
        0x000008d4:    2011        .       MOVS     r0,#0x11
        0x000008d6:    f000fbdd    ....    BL       LCD_WR_REG ; 0x1094
        0x000008da:    4806        .H      LDR      r0,[pc,#24] ; [0x8f4] = 0x5b8d80
        0x000008dc:    f000ff44    ..D.    BL       delay ; 0x1768
        0x000008e0:    2029        )       MOVS     r0,#0x29
        0x000008e2:    f000fbd7    ....    BL       LCD_WR_REG ; 0x1094
        0x000008e6:    e007        ..      B        0x8f8 ; LCD_Init + 1036
    $d
        0x000008e8:    002625a0    .%&.    DCD    2500000
        0x000008ec:    20000014    ...     DCD    536870932
        0x000008f0:    0003d090    ....    DCD    250000
        0x000008f4:    005b8d80    ..[.    DCD    6000000
    $t
        0x000008f8:    2000        .       MOVS     r0,#0
        0x000008fa:    f7fffc61    ..a.    BL       LCD_Display_Dir ; 0x1c0
        0x000008fe:    2001        .       MOVS     r0,#1
        0x00000900:    4903        .I      LDR      r1,[pc,#12] ; [0x910] = 0x40003000
        0x00000902:    6148        Ha      STR      r0,[r1,#0x14]
        0x00000904:    f64f70ff    O..p    MOV      r0,#0xffff
        0x00000908:    f7fffc18    ....    BL       LCD_Clear ; 0x13c
        0x0000090c:    bd00        ..      POP      {pc}
    $d
        0x0000090e:    0000        ..      DCW    0
        0x00000910:    40003000    .0.@    DCD    1073754112
    $t
    i.LCD_Pow
    LCD_Pow
        0x00000914:    b510        ..      PUSH     {r4,lr}
        0x00000916:    4602        .F      MOV      r2,r0
        0x00000918:    2001        .       MOVS     r0,#1
        0x0000091a:    e000        ..      B        0x91e ; LCD_Pow + 10
        0x0000091c:    4350        PC      MULS     r0,r2,r0
        0x0000091e:    1e0b        ..      SUBS     r3,r1,#0
        0x00000920:    f1a10401    ....    SUB      r4,r1,#1
        0x00000924:    b2e1        ..      UXTB     r1,r4
        0x00000926:    d1f9        ..      BNE      0x91c ; LCD_Pow + 8
        0x00000928:    bd10        ..      POP      {r4,pc}
        0x0000092a:    0000        ..      MOVS     r0,r0
    i.LCD_RD_DATA
    LCD_RD_DATA
        0x0000092c:    b500        ..      PUSH     {lr}
        0x0000092e:    2001        .       MOVS     r0,#1
        0x00000930:    4908        .I      LDR      r1,[pc,#32] ; [0x954] = 0x40003000
        0x00000932:    6048        H`      STR      r0,[r1,#4]
        0x00000934:    2000        .       MOVS     r0,#0
        0x00000936:    6008        .`      STR      r0,[r1,#0]
        0x00000938:    60c8        .`      STR      r0,[r1,#0xc]
        0x0000093a:    f000fc29    ..).    BL       ReadData ; 0x1190
        0x0000093e:    4603        .F      MOV      r3,r0
        0x00000940:    f44f70fa    O..p    MOV      r0,#0x1f4
        0x00000944:    f000ff10    ....    BL       delay ; 0x1768
        0x00000948:    2001        .       MOVS     r0,#1
        0x0000094a:    4902        .I      LDR      r1,[pc,#8] ; [0x954] = 0x40003000
        0x0000094c:    60c8        .`      STR      r0,[r1,#0xc]
        0x0000094e:    6008        .`      STR      r0,[r1,#0]
        0x00000950:    4618        .F      MOV      r0,r3
        0x00000952:    bd00        ..      POP      {pc}
    $d
        0x00000954:    40003000    .0.@    DCD    1073754112
    $t
    i.LCD_Scan_Dir
    LCD_Scan_Dir
        0x00000958:    b5f0        ..      PUSH     {r4-r7,lr}
        0x0000095a:    4605        .F      MOV      r5,r0
        0x0000095c:    2400        .$      MOVS     r4,#0
        0x0000095e:    2700        .'      MOVS     r7,#0
        0x00000960:    48f8        .H      LDR      r0,[pc,#992] ; [0xd44] = 0x20000014
        0x00000962:    7980        .y      LDRB     r0,[r0,#6]
        0x00000964:    2801        .(      CMP      r0,#1
        0x00000966:    d10b        ..      BNE      0x980 ; LCD_Scan_Dir + 40
        0x00000968:    48f6        .H      LDR      r0,[pc,#984] ; [0xd44] = 0x20000014
        0x0000096a:    8880        ..      LDRH     r0,[r0,#4]
        0x0000096c:    f6460104    F...    MOV      r1,#0x6804
        0x00000970:    4288        .B      CMP      r0,r1
        0x00000972:    d005        ..      BEQ      0x980 ; LCD_Scan_Dir + 40
        0x00000974:    48f3        .H      LDR      r0,[pc,#972] ; [0xd44] = 0x20000014
        0x00000976:    8880        ..      LDRH     r0,[r0,#4]
        0x00000978:    f6411163    A.c.    MOV      r1,#0x1963
        0x0000097c:    4288        .B      CMP      r0,r1
        0x0000097e:    d108        ..      BNE      0x992 ; LCD_Scan_Dir + 58
        0x00000980:    48f0        .H      LDR      r0,[pc,#960] ; [0xd44] = 0x20000014
        0x00000982:    7980        .y      LDRB     r0,[r0,#6]
        0x00000984:    b9f0        ..      CBNZ     r0,0x9c4 ; LCD_Scan_Dir + 108
        0x00000986:    48ef        .H      LDR      r0,[pc,#956] ; [0xd44] = 0x20000014
        0x00000988:    8880        ..      LDRH     r0,[r0,#4]
        0x0000098a:    f6411163    A.c.    MOV      r1,#0x1963
        0x0000098e:    4288        .B      CMP      r0,r1
        0x00000990:    d118        ..      BNE      0x9c4 ; LCD_Scan_Dir + 108
        0x00000992:    2d08        .-      CMP      r5,#8
        0x00000994:    d215        ..      BCS      0x9c2 ; LCD_Scan_Dir + 106
        0x00000996:    e8dff005    ....    TBB      [pc,r5]
    $d
        0x0000099a:    0604        ..      DCW    1540
        0x0000099c:    0e0c0a08    ....    DCD    235670024
        0x000009a0:    1210        ..      DCW    4624
    $t
        0x000009a2:    2506        .%      MOVS     r5,#6
        0x000009a4:    e00d        ..      B        0x9c2 ; LCD_Scan_Dir + 106
        0x000009a6:    2507        .%      MOVS     r5,#7
        0x000009a8:    e00b        ..      B        0x9c2 ; LCD_Scan_Dir + 106
        0x000009aa:    2504        .%      MOVS     r5,#4
        0x000009ac:    e009        ..      B        0x9c2 ; LCD_Scan_Dir + 106
        0x000009ae:    2505        .%      MOVS     r5,#5
        0x000009b0:    e007        ..      B        0x9c2 ; LCD_Scan_Dir + 106
        0x000009b2:    2501        .%      MOVS     r5,#1
        0x000009b4:    e005        ..      B        0x9c2 ; LCD_Scan_Dir + 106
        0x000009b6:    2500        .%      MOVS     r5,#0
        0x000009b8:    e003        ..      B        0x9c2 ; LCD_Scan_Dir + 106
        0x000009ba:    2503        .%      MOVS     r5,#3
        0x000009bc:    e001        ..      B        0x9c2 ; LCD_Scan_Dir + 106
        0x000009be:    2502        .%      MOVS     r5,#2
        0x000009c0:    bf00        ..      NOP      
        0x000009c2:    bf00        ..      NOP      
        0x000009c4:    48df        .H      LDR      r0,[pc,#892] ; [0xd44] = 0x20000014
        0x000009c6:    8880        ..      LDRH     r0,[r0,#4]
        0x000009c8:    f2493141    I.A1    MOV      r1,#0x9341
        0x000009cc:    4288        .B      CMP      r0,r1
        0x000009ce:    d017        ..      BEQ      0xa00 ; LCD_Scan_Dir + 168
        0x000009d0:    48dc        .H      LDR      r0,[pc,#880] ; [0xd44] = 0x20000014
        0x000009d2:    8880        ..      LDRH     r0,[r0,#4]
        0x000009d4:    f6460104    F...    MOV      r1,#0x6804
        0x000009d8:    4288        .B      CMP      r0,r1
        0x000009da:    d011        ..      BEQ      0xa00 ; LCD_Scan_Dir + 168
        0x000009dc:    48d9        .H      LDR      r0,[pc,#868] ; [0xd44] = 0x20000014
        0x000009de:    8880        ..      LDRH     r0,[r0,#4]
        0x000009e0:    f2453110    E..1    MOV      r1,#0x5310
        0x000009e4:    4288        .B      CMP      r0,r1
        0x000009e6:    d00b        ..      BEQ      0xa00 ; LCD_Scan_Dir + 168
        0x000009e8:    48d6        .H      LDR      r0,[pc,#856] ; [0xd44] = 0x20000014
        0x000009ea:    8880        ..      LDRH     r0,[r0,#4]
        0x000009ec:    f2455110    E..Q    MOV      r1,#0x5510
        0x000009f0:    4288        .B      CMP      r0,r1
        0x000009f2:    d005        ..      BEQ      0xa00 ; LCD_Scan_Dir + 168
        0x000009f4:    48d3        .H      LDR      r0,[pc,#844] ; [0xd44] = 0x20000014
        0x000009f6:    8880        ..      LDRH     r0,[r0,#4]
        0x000009f8:    f6411163    A.c.    MOV      r1,#0x1963
        0x000009fc:    4288        .B      CMP      r0,r1
        0x000009fe:    d17d        }.      BNE      0xafc ; LCD_Scan_Dir + 420
        0x00000a00:    2d08        .-      CMP      r5,#8
        0x00000a02:    d21c        ..      BCS      0xa3e ; LCD_Scan_Dir + 230
        0x00000a04:    e8dff005    ....    TBB      [pc,r5]
    $d
        0x00000a08:    0c090604    ....    DCD    201917956
        0x00000a0c:    1815120f    ....    DCD    404034063
    $t
        0x00000a10:    bf00        ..      NOP      
        0x00000a12:    e014        ..      B        0xa3e ; LCD_Scan_Dir + 230
        0x00000a14:    f0440480    D...    ORR      r4,r4,#0x80
        0x00000a18:    e011        ..      B        0xa3e ; LCD_Scan_Dir + 230
        0x00000a1a:    f0440440    D.@.    ORR      r4,r4,#0x40
        0x00000a1e:    e00e        ..      B        0xa3e ; LCD_Scan_Dir + 230
        0x00000a20:    f04404c0    D...    ORR      r4,r4,#0xc0
        0x00000a24:    e00b        ..      B        0xa3e ; LCD_Scan_Dir + 230
        0x00000a26:    f0440420    D. .    ORR      r4,r4,#0x20
        0x00000a2a:    e008        ..      B        0xa3e ; LCD_Scan_Dir + 230
        0x00000a2c:    f0440460    D.`.    ORR      r4,r4,#0x60
        0x00000a30:    e005        ..      B        0xa3e ; LCD_Scan_Dir + 230
        0x00000a32:    f04404a0    D...    ORR      r4,r4,#0xa0
        0x00000a36:    e002        ..      B        0xa3e ; LCD_Scan_Dir + 230
        0x00000a38:    f04404e0    D...    ORR      r4,r4,#0xe0
        0x00000a3c:    bf00        ..      NOP      
        0x00000a3e:    bf00        ..      NOP      
        0x00000a40:    48c0        .H      LDR      r0,[pc,#768] ; [0xd44] = 0x20000014
        0x00000a42:    8880        ..      LDRH     r0,[r0,#4]
        0x00000a44:    f2455110    E..Q    MOV      r1,#0x5510
        0x00000a48:    4288        .B      CMP      r0,r1
        0x00000a4a:    d102        ..      BNE      0xa52 ; LCD_Scan_Dir + 250
        0x00000a4c:    f44f5758    O.XW    MOV      r7,#0x3600
        0x00000a50:    e000        ..      B        0xa54 ; LCD_Scan_Dir + 252
        0x00000a52:    2736        6'      MOVS     r7,#0x36
        0x00000a54:    48bb        .H      LDR      r0,[pc,#748] ; [0xd44] = 0x20000014
        0x00000a56:    8880        ..      LDRH     r0,[r0,#4]
        0x00000a58:    f2453110    E..1    MOV      r1,#0x5310
        0x00000a5c:    4288        .B      CMP      r0,r1
        0x00000a5e:    d00d        ..      BEQ      0xa7c ; LCD_Scan_Dir + 292
        0x00000a60:    48b8        .H      LDR      r0,[pc,#736] ; [0xd44] = 0x20000014
        0x00000a62:    8880        ..      LDRH     r0,[r0,#4]
        0x00000a64:    f2455110    E..Q    MOV      r1,#0x5510
        0x00000a68:    4288        .B      CMP      r0,r1
        0x00000a6a:    d007        ..      BEQ      0xa7c ; LCD_Scan_Dir + 292
        0x00000a6c:    48b5        .H      LDR      r0,[pc,#724] ; [0xd44] = 0x20000014
        0x00000a6e:    8880        ..      LDRH     r0,[r0,#4]
        0x00000a70:    f6411163    A.c.    MOV      r1,#0x1963
        0x00000a74:    4288        .B      CMP      r0,r1
        0x00000a76:    d001        ..      BEQ      0xa7c ; LCD_Scan_Dir + 292
        0x00000a78:    f0440408    D...    ORR      r4,r4,#8
        0x00000a7c:    48b1        .H      LDR      r0,[pc,#708] ; [0xd44] = 0x20000014
        0x00000a7e:    8880        ..      LDRH     r0,[r0,#4]
        0x00000a80:    f6460104    F...    MOV      r1,#0x6804
        0x00000a84:    4288        .B      CMP      r0,r1
        0x00000a86:    d101        ..      BNE      0xa8c ; LCD_Scan_Dir + 308
        0x00000a88:    f0440402    D...    ORR      r4,r4,#2
        0x00000a8c:    4621        !F      MOV      r1,r4
        0x00000a8e:    4638        8F      MOV      r0,r7
        0x00000a90:    f000fb24    ..$.    BL       LCD_WriteReg ; 0x10dc
        0x00000a94:    48ab        .H      LDR      r0,[pc,#684] ; [0xd44] = 0x20000014
        0x00000a96:    8880        ..      LDRH     r0,[r0,#4]
        0x00000a98:    f6411163    A.c.    MOV      r1,#0x1963
        0x00000a9c:    4288        .B      CMP      r0,r1
        0x00000a9e:    d01d        ..      BEQ      0xadc ; LCD_Scan_Dir + 388
        0x00000aa0:    f0040020    .. .    AND      r0,r4,#0x20
        0x00000aa4:    b168        h.      CBZ      r0,0xac2 ; LCD_Scan_Dir + 362
        0x00000aa6:    48a7        .H      LDR      r0,[pc,#668] ; [0xd44] = 0x20000014
        0x00000aa8:    8800        ..      LDRH     r0,[r0,#0]
        0x00000aaa:    49a6        .I      LDR      r1,[pc,#664] ; [0xd44] = 0x20000014
        0x00000aac:    8849        I.      LDRH     r1,[r1,#2]
        0x00000aae:    4288        .B      CMP      r0,r1
        0x00000ab0:    da14        ..      BGE      0xadc ; LCD_Scan_Dir + 388
        0x00000ab2:    48a4        .H      LDR      r0,[pc,#656] ; [0xd44] = 0x20000014
        0x00000ab4:    8806        ..      LDRH     r6,[r0,#0]
        0x00000ab6:    8840        @.      LDRH     r0,[r0,#2]
        0x00000ab8:    49a2        .I      LDR      r1,[pc,#648] ; [0xd44] = 0x20000014
        0x00000aba:    8008        ..      STRH     r0,[r1,#0]
        0x00000abc:    4608        .F      MOV      r0,r1
        0x00000abe:    8046        F.      STRH     r6,[r0,#2]
        0x00000ac0:    e00c        ..      B        0xadc ; LCD_Scan_Dir + 388
        0x00000ac2:    48a0        .H      LDR      r0,[pc,#640] ; [0xd44] = 0x20000014
        0x00000ac4:    8800        ..      LDRH     r0,[r0,#0]
        0x00000ac6:    499f        .I      LDR      r1,[pc,#636] ; [0xd44] = 0x20000014
        0x00000ac8:    8849        I.      LDRH     r1,[r1,#2]
        0x00000aca:    4288        .B      CMP      r0,r1
        0x00000acc:    dd06        ..      BLE      0xadc ; LCD_Scan_Dir + 388
        0x00000ace:    489d        .H      LDR      r0,[pc,#628] ; [0xd44] = 0x20000014
        0x00000ad0:    8806        ..      LDRH     r6,[r0,#0]
        0x00000ad2:    8840        @.      LDRH     r0,[r0,#2]
        0x00000ad4:    499b        .I      LDR      r1,[pc,#620] ; [0xd44] = 0x20000014
        0x00000ad6:    8008        ..      STRH     r0,[r1,#0]
        0x00000ad8:    4608        .F      MOV      r0,r1
        0x00000ada:    8046        F.      STRH     r6,[r0,#2]
        0x00000adc:    4899        .H      LDR      r0,[pc,#612] ; [0xd44] = 0x20000014
        0x00000ade:    8880        ..      LDRH     r0,[r0,#4]
        0x00000ae0:    f2455110    E..Q    MOV      r1,#0x5510
        0x00000ae4:    4288        .B      CMP      r0,r1
        0x00000ae6:    d17d        }.      BNE      0xbe4 ; LCD_Scan_Dir + 652
        0x00000ae8:    4996        .I      LDR      r1,[pc,#600] ; [0xd44] = 0x20000014
        0x00000aea:    8948        H.      LDRH     r0,[r1,#0xa]
        0x00000aec:    f000fad2    ....    BL       LCD_WR_REG ; 0x1094
        0x00000af0:    2001        .       MOVS     r0,#1
        0x00000af2:    4995        .I      LDR      r1,[pc,#596] ; [0xd48] = 0x40003000
        0x00000af4:    6048        H`      STR      r0,[r1,#4]
        0x00000af6:    2000        .       MOVS     r0,#0
        0x00000af8:    6008        .`      STR      r0,[r1,#0]
        0x00000afa:    e000        ..      B        0xafe ; LCD_Scan_Dir + 422
        0x00000afc:    e116        ..      B        0xd2c ; LCD_Scan_Dir + 980
        0x00000afe:    f000fb05    ....    BL       MakeData ; 0x110c
        0x00000b02:    2000        .       MOVS     r0,#0
        0x00000b04:    4990        .I      LDR      r1,[pc,#576] ; [0xd48] = 0x40003000
        0x00000b06:    6088        .`      STR      r0,[r1,#8]
        0x00000b08:    2001        .       MOVS     r0,#1
        0x00000b0a:    6088        .`      STR      r0,[r1,#8]
        0x00000b0c:    6008        .`      STR      r0,[r1,#0]
        0x00000b0e:    498d        .I      LDR      r1,[pc,#564] ; [0xd44] = 0x20000014
        0x00000b10:    8949        I.      LDRH     r1,[r1,#0xa]
        0x00000b12:    1c49        I.      ADDS     r1,r1,#1
        0x00000b14:    b288        ..      UXTH     r0,r1
        0x00000b16:    f000fabd    ....    BL       LCD_WR_REG ; 0x1094
        0x00000b1a:    2001        .       MOVS     r0,#1
        0x00000b1c:    498a        .I      LDR      r1,[pc,#552] ; [0xd48] = 0x40003000
        0x00000b1e:    6048        H`      STR      r0,[r1,#4]
        0x00000b20:    2000        .       MOVS     r0,#0
        0x00000b22:    6008        .`      STR      r0,[r1,#0]
        0x00000b24:    f000faf2    ....    BL       MakeData ; 0x110c
        0x00000b28:    2000        .       MOVS     r0,#0
        0x00000b2a:    4987        .I      LDR      r1,[pc,#540] ; [0xd48] = 0x40003000
        0x00000b2c:    6088        .`      STR      r0,[r1,#8]
        0x00000b2e:    2001        .       MOVS     r0,#1
        0x00000b30:    6088        .`      STR      r0,[r1,#8]
        0x00000b32:    6008        .`      STR      r0,[r1,#0]
        0x00000b34:    4983        .I      LDR      r1,[pc,#524] ; [0xd44] = 0x20000014
        0x00000b36:    8949        I.      LDRH     r1,[r1,#0xa]
        0x00000b38:    1c89        ..      ADDS     r1,r1,#2
        0x00000b3a:    b288        ..      UXTH     r0,r1
        0x00000b3c:    f000faaa    ....    BL       LCD_WR_REG ; 0x1094
        0x00000b40:    2001        .       MOVS     r0,#1
        0x00000b42:    4981        .I      LDR      r1,[pc,#516] ; [0xd48] = 0x40003000
        0x00000b44:    6048        H`      STR      r0,[r1,#4]
        0x00000b46:    2000        .       MOVS     r0,#0
        0x00000b48:    6008        .`      STR      r0,[r1,#0]
        0x00000b4a:    497e        ~I      LDR      r1,[pc,#504] ; [0xd44] = 0x20000014
        0x00000b4c:    8809        ..      LDRH     r1,[r1,#0]
        0x00000b4e:    1e49        I.      SUBS     r1,r1,#1
        0x00000b50:    f3c1200f    ...     UBFX     r0,r1,#8,#16
        0x00000b54:    f000fada    ....    BL       MakeData ; 0x110c
        0x00000b58:    2000        .       MOVS     r0,#0
        0x00000b5a:    497b        {I      LDR      r1,[pc,#492] ; [0xd48] = 0x40003000
        0x00000b5c:    6088        .`      STR      r0,[r1,#8]
        0x00000b5e:    2001        .       MOVS     r0,#1
        0x00000b60:    6088        .`      STR      r0,[r1,#8]
        0x00000b62:    6008        .`      STR      r0,[r1,#0]
        0x00000b64:    4977        wI      LDR      r1,[pc,#476] ; [0xd44] = 0x20000014
        0x00000b66:    8949        I.      LDRH     r1,[r1,#0xa]
        0x00000b68:    1cc9        ..      ADDS     r1,r1,#3
        0x00000b6a:    b288        ..      UXTH     r0,r1
        0x00000b6c:    f000fa92    ....    BL       LCD_WR_REG ; 0x1094
        0x00000b70:    2001        .       MOVS     r0,#1
        0x00000b72:    4975        uI      LDR      r1,[pc,#468] ; [0xd48] = 0x40003000
        0x00000b74:    6048        H`      STR      r0,[r1,#4]
        0x00000b76:    2000        .       MOVS     r0,#0
        0x00000b78:    6008        .`      STR      r0,[r1,#0]
        0x00000b7a:    4972        rI      LDR      r1,[pc,#456] ; [0xd44] = 0x20000014
        0x00000b7c:    7809        .x      LDRB     r1,[r1,#0]
        0x00000b7e:    1e49        I.      SUBS     r1,r1,#1
        0x00000b80:    b2c8        ..      UXTB     r0,r1
        0x00000b82:    f000fac3    ....    BL       MakeData ; 0x110c
        0x00000b86:    2000        .       MOVS     r0,#0
        0x00000b88:    496f        oI      LDR      r1,[pc,#444] ; [0xd48] = 0x40003000
        0x00000b8a:    6088        .`      STR      r0,[r1,#8]
        0x00000b8c:    2001        .       MOVS     r0,#1
        0x00000b8e:    6088        .`      STR      r0,[r1,#8]
        0x00000b90:    6008        .`      STR      r0,[r1,#0]
        0x00000b92:    496c        lI      LDR      r1,[pc,#432] ; [0xd44] = 0x20000014
        0x00000b94:    8988        ..      LDRH     r0,[r1,#0xc]
        0x00000b96:    f000fa7d    ..}.    BL       LCD_WR_REG ; 0x1094
        0x00000b9a:    2001        .       MOVS     r0,#1
        0x00000b9c:    496a        jI      LDR      r1,[pc,#424] ; [0xd48] = 0x40003000
        0x00000b9e:    6048        H`      STR      r0,[r1,#4]
        0x00000ba0:    2000        .       MOVS     r0,#0
        0x00000ba2:    6008        .`      STR      r0,[r1,#0]
        0x00000ba4:    f000fab2    ....    BL       MakeData ; 0x110c
        0x00000ba8:    2000        .       MOVS     r0,#0
        0x00000baa:    4967        gI      LDR      r1,[pc,#412] ; [0xd48] = 0x40003000
        0x00000bac:    6088        .`      STR      r0,[r1,#8]
        0x00000bae:    2001        .       MOVS     r0,#1
        0x00000bb0:    6088        .`      STR      r0,[r1,#8]
        0x00000bb2:    6008        .`      STR      r0,[r1,#0]
        0x00000bb4:    4963        cI      LDR      r1,[pc,#396] ; [0xd44] = 0x20000014
        0x00000bb6:    8989        ..      LDRH     r1,[r1,#0xc]
        0x00000bb8:    1c49        I.      ADDS     r1,r1,#1
        0x00000bba:    b288        ..      UXTH     r0,r1
        0x00000bbc:    f000fa6a    ..j.    BL       LCD_WR_REG ; 0x1094
        0x00000bc0:    2001        .       MOVS     r0,#1
        0x00000bc2:    4961        aI      LDR      r1,[pc,#388] ; [0xd48] = 0x40003000
        0x00000bc4:    6048        H`      STR      r0,[r1,#4]
        0x00000bc6:    2000        .       MOVS     r0,#0
        0x00000bc8:    6008        .`      STR      r0,[r1,#0]
        0x00000bca:    f000fa9f    ....    BL       MakeData ; 0x110c
        0x00000bce:    2000        .       MOVS     r0,#0
        0x00000bd0:    495d        ]I      LDR      r1,[pc,#372] ; [0xd48] = 0x40003000
        0x00000bd2:    6088        .`      STR      r0,[r1,#8]
        0x00000bd4:    2001        .       MOVS     r0,#1
        0x00000bd6:    6088        .`      STR      r0,[r1,#8]
        0x00000bd8:    6008        .`      STR      r0,[r1,#0]
        0x00000bda:    495a        ZI      LDR      r1,[pc,#360] ; [0xd44] = 0x20000014
        0x00000bdc:    8989        ..      LDRH     r1,[r1,#0xc]
        0x00000bde:    1c89        ..      ADDS     r1,r1,#2
        0x00000be0:    b288        ..      UXTH     r0,r1
        0x00000be2:    e000        ..      B        0xbe6 ; LCD_Scan_Dir + 654
        0x00000be4:    e02b        +.      B        0xc3e ; LCD_Scan_Dir + 742
        0x00000be6:    f000fa55    ..U.    BL       LCD_WR_REG ; 0x1094
        0x00000bea:    2001        .       MOVS     r0,#1
        0x00000bec:    4956        VI      LDR      r1,[pc,#344] ; [0xd48] = 0x40003000
        0x00000bee:    6048        H`      STR      r0,[r1,#4]
        0x00000bf0:    2000        .       MOVS     r0,#0
        0x00000bf2:    6008        .`      STR      r0,[r1,#0]
        0x00000bf4:    4953        SI      LDR      r1,[pc,#332] ; [0xd44] = 0x20000014
        0x00000bf6:    8849        I.      LDRH     r1,[r1,#2]
        0x00000bf8:    1e49        I.      SUBS     r1,r1,#1
        0x00000bfa:    f3c1200f    ...     UBFX     r0,r1,#8,#16
        0x00000bfe:    f000fa85    ....    BL       MakeData ; 0x110c
        0x00000c02:    2000        .       MOVS     r0,#0
        0x00000c04:    4950        PI      LDR      r1,[pc,#320] ; [0xd48] = 0x40003000
        0x00000c06:    6088        .`      STR      r0,[r1,#8]
        0x00000c08:    2001        .       MOVS     r0,#1
        0x00000c0a:    6088        .`      STR      r0,[r1,#8]
        0x00000c0c:    6008        .`      STR      r0,[r1,#0]
        0x00000c0e:    494d        MI      LDR      r1,[pc,#308] ; [0xd44] = 0x20000014
        0x00000c10:    8989        ..      LDRH     r1,[r1,#0xc]
        0x00000c12:    1cc9        ..      ADDS     r1,r1,#3
        0x00000c14:    b288        ..      UXTH     r0,r1
        0x00000c16:    f000fa3d    ..=.    BL       LCD_WR_REG ; 0x1094
        0x00000c1a:    2001        .       MOVS     r0,#1
        0x00000c1c:    494a        JI      LDR      r1,[pc,#296] ; [0xd48] = 0x40003000
        0x00000c1e:    6048        H`      STR      r0,[r1,#4]
        0x00000c20:    2000        .       MOVS     r0,#0
        0x00000c22:    6008        .`      STR      r0,[r1,#0]
        0x00000c24:    4947        GI      LDR      r1,[pc,#284] ; [0xd44] = 0x20000014
        0x00000c26:    7889        .x      LDRB     r1,[r1,#2]
        0x00000c28:    1e49        I.      SUBS     r1,r1,#1
        0x00000c2a:    b2c8        ..      UXTB     r0,r1
        0x00000c2c:    f000fa6e    ..n.    BL       MakeData ; 0x110c
        0x00000c30:    2000        .       MOVS     r0,#0
        0x00000c32:    4945        EI      LDR      r1,[pc,#276] ; [0xd48] = 0x40003000
        0x00000c34:    6088        .`      STR      r0,[r1,#8]
        0x00000c36:    2001        .       MOVS     r0,#1
        0x00000c38:    6088        .`      STR      r0,[r1,#8]
        0x00000c3a:    6008        .`      STR      r0,[r1,#0]
        0x00000c3c:    e0a2        ..      B        0xd84 ; LCD_Scan_Dir + 1068
        0x00000c3e:    4941        AI      LDR      r1,[pc,#260] ; [0xd44] = 0x20000014
        0x00000c40:    8948        H.      LDRH     r0,[r1,#0xa]
        0x00000c42:    f000fa27    ..'.    BL       LCD_WR_REG ; 0x1094
        0x00000c46:    2001        .       MOVS     r0,#1
        0x00000c48:    493f        ?I      LDR      r1,[pc,#252] ; [0xd48] = 0x40003000
        0x00000c4a:    6048        H`      STR      r0,[r1,#4]
        0x00000c4c:    2000        .       MOVS     r0,#0
        0x00000c4e:    6008        .`      STR      r0,[r1,#0]
        0x00000c50:    f000fa5c    ..\.    BL       MakeData ; 0x110c
        0x00000c54:    2000        .       MOVS     r0,#0
        0x00000c56:    493c        <I      LDR      r1,[pc,#240] ; [0xd48] = 0x40003000
        0x00000c58:    6088        .`      STR      r0,[r1,#8]
        0x00000c5a:    2001        .       MOVS     r0,#1
        0x00000c5c:    6088        .`      STR      r0,[r1,#8]
        0x00000c5e:    6008        .`      STR      r0,[r1,#0]
        0x00000c60:    6048        H`      STR      r0,[r1,#4]
        0x00000c62:    2000        .       MOVS     r0,#0
        0x00000c64:    6008        .`      STR      r0,[r1,#0]
        0x00000c66:    f000fa51    ..Q.    BL       MakeData ; 0x110c
        0x00000c6a:    2000        .       MOVS     r0,#0
        0x00000c6c:    4936        6I      LDR      r1,[pc,#216] ; [0xd48] = 0x40003000
        0x00000c6e:    6088        .`      STR      r0,[r1,#8]
        0x00000c70:    2001        .       MOVS     r0,#1
        0x00000c72:    6088        .`      STR      r0,[r1,#8]
        0x00000c74:    6008        .`      STR      r0,[r1,#0]
        0x00000c76:    6048        H`      STR      r0,[r1,#4]
        0x00000c78:    2000        .       MOVS     r0,#0
        0x00000c7a:    6008        .`      STR      r0,[r1,#0]
        0x00000c7c:    4931        1I      LDR      r1,[pc,#196] ; [0xd44] = 0x20000014
        0x00000c7e:    8809        ..      LDRH     r1,[r1,#0]
        0x00000c80:    1e49        I.      SUBS     r1,r1,#1
        0x00000c82:    f3c1200f    ...     UBFX     r0,r1,#8,#16
        0x00000c86:    f000fa41    ..A.    BL       MakeData ; 0x110c
        0x00000c8a:    2000        .       MOVS     r0,#0
        0x00000c8c:    492e        .I      LDR      r1,[pc,#184] ; [0xd48] = 0x40003000
        0x00000c8e:    6088        .`      STR      r0,[r1,#8]
        0x00000c90:    2001        .       MOVS     r0,#1
        0x00000c92:    6088        .`      STR      r0,[r1,#8]
        0x00000c94:    6008        .`      STR      r0,[r1,#0]
        0x00000c96:    6048        H`      STR      r0,[r1,#4]
        0x00000c98:    2000        .       MOVS     r0,#0
        0x00000c9a:    6008        .`      STR      r0,[r1,#0]
        0x00000c9c:    4929        )I      LDR      r1,[pc,#164] ; [0xd44] = 0x20000014
        0x00000c9e:    7809        .x      LDRB     r1,[r1,#0]
        0x00000ca0:    1e49        I.      SUBS     r1,r1,#1
        0x00000ca2:    b2c8        ..      UXTB     r0,r1
        0x00000ca4:    f000fa32    ..2.    BL       MakeData ; 0x110c
        0x00000ca8:    2000        .       MOVS     r0,#0
        0x00000caa:    4927        'I      LDR      r1,[pc,#156] ; [0xd48] = 0x40003000
        0x00000cac:    6088        .`      STR      r0,[r1,#8]
        0x00000cae:    2001        .       MOVS     r0,#1
        0x00000cb0:    6088        .`      STR      r0,[r1,#8]
        0x00000cb2:    6008        .`      STR      r0,[r1,#0]
        0x00000cb4:    4923        #I      LDR      r1,[pc,#140] ; [0xd44] = 0x20000014
        0x00000cb6:    8988        ..      LDRH     r0,[r1,#0xc]
        0x00000cb8:    f000f9ec    ....    BL       LCD_WR_REG ; 0x1094
        0x00000cbc:    2001        .       MOVS     r0,#1
        0x00000cbe:    4922        "I      LDR      r1,[pc,#136] ; [0xd48] = 0x40003000
        0x00000cc0:    6048        H`      STR      r0,[r1,#4]
        0x00000cc2:    2000        .       MOVS     r0,#0
        0x00000cc4:    6008        .`      STR      r0,[r1,#0]
        0x00000cc6:    f000fa21    ..!.    BL       MakeData ; 0x110c
        0x00000cca:    2000        .       MOVS     r0,#0
        0x00000ccc:    491e        .I      LDR      r1,[pc,#120] ; [0xd48] = 0x40003000
        0x00000cce:    6088        .`      STR      r0,[r1,#8]
        0x00000cd0:    2001        .       MOVS     r0,#1
        0x00000cd2:    6088        .`      STR      r0,[r1,#8]
        0x00000cd4:    6008        .`      STR      r0,[r1,#0]
        0x00000cd6:    6048        H`      STR      r0,[r1,#4]
        0x00000cd8:    2000        .       MOVS     r0,#0
        0x00000cda:    6008        .`      STR      r0,[r1,#0]
        0x00000cdc:    f000fa16    ....    BL       MakeData ; 0x110c
        0x00000ce0:    2000        .       MOVS     r0,#0
        0x00000ce2:    4919        .I      LDR      r1,[pc,#100] ; [0xd48] = 0x40003000
        0x00000ce4:    6088        .`      STR      r0,[r1,#8]
        0x00000ce6:    2001        .       MOVS     r0,#1
        0x00000ce8:    6088        .`      STR      r0,[r1,#8]
        0x00000cea:    6008        .`      STR      r0,[r1,#0]
        0x00000cec:    6048        H`      STR      r0,[r1,#4]
        0x00000cee:    2000        .       MOVS     r0,#0
        0x00000cf0:    6008        .`      STR      r0,[r1,#0]
        0x00000cf2:    4914        .I      LDR      r1,[pc,#80] ; [0xd44] = 0x20000014
        0x00000cf4:    8849        I.      LDRH     r1,[r1,#2]
        0x00000cf6:    1e49        I.      SUBS     r1,r1,#1
        0x00000cf8:    f3c1200f    ...     UBFX     r0,r1,#8,#16
        0x00000cfc:    f000fa06    ....    BL       MakeData ; 0x110c
        0x00000d00:    2000        .       MOVS     r0,#0
        0x00000d02:    4911        .I      LDR      r1,[pc,#68] ; [0xd48] = 0x40003000
        0x00000d04:    6088        .`      STR      r0,[r1,#8]
        0x00000d06:    2001        .       MOVS     r0,#1
        0x00000d08:    6088        .`      STR      r0,[r1,#8]
        0x00000d0a:    6008        .`      STR      r0,[r1,#0]
        0x00000d0c:    6048        H`      STR      r0,[r1,#4]
        0x00000d0e:    2000        .       MOVS     r0,#0
        0x00000d10:    6008        .`      STR      r0,[r1,#0]
        0x00000d12:    490c        .I      LDR      r1,[pc,#48] ; [0xd44] = 0x20000014
        0x00000d14:    7889        .x      LDRB     r1,[r1,#2]
        0x00000d16:    1e49        I.      SUBS     r1,r1,#1
        0x00000d18:    b2c8        ..      UXTB     r0,r1
        0x00000d1a:    f000f9f7    ....    BL       MakeData ; 0x110c
        0x00000d1e:    2000        .       MOVS     r0,#0
        0x00000d20:    4909        .I      LDR      r1,[pc,#36] ; [0xd48] = 0x40003000
        0x00000d22:    6088        .`      STR      r0,[r1,#8]
        0x00000d24:    2001        .       MOVS     r0,#1
        0x00000d26:    6088        .`      STR      r0,[r1,#8]
        0x00000d28:    6008        .`      STR      r0,[r1,#0]
        0x00000d2a:    e02b        +.      B        0xd84 ; LCD_Scan_Dir + 1068
        0x00000d2c:    2d08        .-      CMP      r5,#8
        0x00000d2e:    d221        !.      BCS      0xd74 ; LCD_Scan_Dir + 1052
        0x00000d30:    e8dff005    ....    TBB      [pc,r5]
    $d
        0x00000d34:    120f0c04    ....    DCD    302976004
        0x00000d38:    1d1a1714    ....    DCD    488249108
    $t
        0x00000d3c:    f0440430    D.0.    ORR      r4,r4,#0x30
        0x00000d40:    e018        ..      B        0xd74 ; LCD_Scan_Dir + 1052
    $d
        0x00000d42:    0000        ..      DCW    0
        0x00000d44:    20000014    ...     DCD    536870932
        0x00000d48:    40003000    .0.@    DCD    1073754112
    $t
        0x00000d4c:    f0440410    D...    ORR      r4,r4,#0x10
        0x00000d50:    e010        ..      B        0xd74 ; LCD_Scan_Dir + 1052
        0x00000d52:    f0440420    D. .    ORR      r4,r4,#0x20
        0x00000d56:    e00d        ..      B        0xd74 ; LCD_Scan_Dir + 1052
        0x00000d58:    bf00        ..      NOP      
        0x00000d5a:    e00b        ..      B        0xd74 ; LCD_Scan_Dir + 1052
        0x00000d5c:    f0440438    D.8.    ORR      r4,r4,#0x38
        0x00000d60:    e008        ..      B        0xd74 ; LCD_Scan_Dir + 1052
        0x00000d62:    f0440428    D.(.    ORR      r4,r4,#0x28
        0x00000d66:    e005        ..      B        0xd74 ; LCD_Scan_Dir + 1052
        0x00000d68:    f0440418    D...    ORR      r4,r4,#0x18
        0x00000d6c:    e002        ..      B        0xd74 ; LCD_Scan_Dir + 1052
        0x00000d6e:    f0440408    D...    ORR      r4,r4,#8
        0x00000d72:    bf00        ..      NOP      
        0x00000d74:    bf00        ..      NOP      
        0x00000d76:    2703        .'      MOVS     r7,#3
        0x00000d78:    f4445480    D..T    ORR      r4,r4,#0x1000
        0x00000d7c:    4621        !F      MOV      r1,r4
        0x00000d7e:    4638        8F      MOV      r0,r7
        0x00000d80:    f000f9ac    ....    BL       LCD_WriteReg ; 0x10dc
        0x00000d84:    bdf0        ..      POP      {r4-r7,pc}
        0x00000d86:    0000        ..      MOVS     r0,r0
    i.LCD_SetCursor
    LCD_SetCursor
        0x00000d88:    b530        0.      PUSH     {r4,r5,lr}
        0x00000d8a:    4604        .F      MOV      r4,r0
        0x00000d8c:    460d        .F      MOV      r5,r1
        0x00000d8e:    491e        .I      LDR      r1,[pc,#120] ; [0xe08] = 0x20000014
        0x00000d90:    8948        H.      LDRH     r0,[r1,#0xa]
        0x00000d92:    f000f97f    ....    BL       LCD_WR_REG ; 0x1094
        0x00000d96:    2001        .       MOVS     r0,#1
        0x00000d98:    491c        .I      LDR      r1,[pc,#112] ; [0xe0c] = 0x40003000
        0x00000d9a:    6048        H`      STR      r0,[r1,#4]
        0x00000d9c:    2000        .       MOVS     r0,#0
        0x00000d9e:    6008        .`      STR      r0,[r1,#0]
        0x00000da0:    1220         .      ASRS     r0,r4,#8
        0x00000da2:    f000f9b3    ....    BL       MakeData ; 0x110c
        0x00000da6:    2000        .       MOVS     r0,#0
        0x00000da8:    4918        .I      LDR      r1,[pc,#96] ; [0xe0c] = 0x40003000
        0x00000daa:    6088        .`      STR      r0,[r1,#8]
        0x00000dac:    2001        .       MOVS     r0,#1
        0x00000dae:    6088        .`      STR      r0,[r1,#8]
        0x00000db0:    6008        .`      STR      r0,[r1,#0]
        0x00000db2:    6048        H`      STR      r0,[r1,#4]
        0x00000db4:    2000        .       MOVS     r0,#0
        0x00000db6:    6008        .`      STR      r0,[r1,#0]
        0x00000db8:    b2e0        ..      UXTB     r0,r4
        0x00000dba:    f000f9a7    ....    BL       MakeData ; 0x110c
        0x00000dbe:    2000        .       MOVS     r0,#0
        0x00000dc0:    4912        .I      LDR      r1,[pc,#72] ; [0xe0c] = 0x40003000
        0x00000dc2:    6088        .`      STR      r0,[r1,#8]
        0x00000dc4:    2001        .       MOVS     r0,#1
        0x00000dc6:    6088        .`      STR      r0,[r1,#8]
        0x00000dc8:    6008        .`      STR      r0,[r1,#0]
        0x00000dca:    490f        .I      LDR      r1,[pc,#60] ; [0xe08] = 0x20000014
        0x00000dcc:    8988        ..      LDRH     r0,[r1,#0xc]
        0x00000dce:    f000f961    ..a.    BL       LCD_WR_REG ; 0x1094
        0x00000dd2:    2001        .       MOVS     r0,#1
        0x00000dd4:    490d        .I      LDR      r1,[pc,#52] ; [0xe0c] = 0x40003000
        0x00000dd6:    6048        H`      STR      r0,[r1,#4]
        0x00000dd8:    2000        .       MOVS     r0,#0
        0x00000dda:    6008        .`      STR      r0,[r1,#0]
        0x00000ddc:    1228        (.      ASRS     r0,r5,#8
        0x00000dde:    f000f995    ....    BL       MakeData ; 0x110c
        0x00000de2:    2000        .       MOVS     r0,#0
        0x00000de4:    4909        .I      LDR      r1,[pc,#36] ; [0xe0c] = 0x40003000
        0x00000de6:    6088        .`      STR      r0,[r1,#8]
        0x00000de8:    2001        .       MOVS     r0,#1
        0x00000dea:    6088        .`      STR      r0,[r1,#8]
        0x00000dec:    6008        .`      STR      r0,[r1,#0]
        0x00000dee:    6048        H`      STR      r0,[r1,#4]
        0x00000df0:    2000        .       MOVS     r0,#0
        0x00000df2:    6008        .`      STR      r0,[r1,#0]
        0x00000df4:    b2e8        ..      UXTB     r0,r5
        0x00000df6:    f000f989    ....    BL       MakeData ; 0x110c
        0x00000dfa:    2000        .       MOVS     r0,#0
        0x00000dfc:    4903        .I      LDR      r1,[pc,#12] ; [0xe0c] = 0x40003000
        0x00000dfe:    6088        .`      STR      r0,[r1,#8]
        0x00000e00:    2001        .       MOVS     r0,#1
        0x00000e02:    6088        .`      STR      r0,[r1,#8]
        0x00000e04:    6008        .`      STR      r0,[r1,#0]
        0x00000e06:    bd30        0.      POP      {r4,r5,pc}
    $d
        0x00000e08:    20000014    ...     DCD    536870932
        0x00000e0c:    40003000    .0.@    DCD    1073754112
    $t
    i.LCD_ShowChar_color
    LCD_ShowChar_color
        0x00000e10:    e92d4ff8    -..O    PUSH     {r3-r11,lr}
        0x00000e14:    4680        .F      MOV      r8,r0
        0x00000e16:    460e        .F      MOV      r6,r1
        0x00000e18:    4617        .F      MOV      r7,r2
        0x00000e1a:    461c        .F      MOV      r4,r3
        0x00000e1c:    46b3        .F      MOV      r11,r6
        0x00000e1e:    4620         F      MOV      r0,r4
        0x00000e20:    17e3        ..      ASRS     r3,r4,#31
        0x00000e22:    eb047353    ..Ss    ADD      r3,r4,r3,LSR #29
        0x00000e26:    10db        ..      ASRS     r3,r3,#3
        0x00000e28:    4621        !F      MOV      r1,r4
        0x00000e2a:    ea4f7ce4    O..|    ASR      r12,r4,#31
        0x00000e2e:    eb047c5c    ..\|    ADD      r12,r4,r12,LSR #29
        0x00000e32:    ea4f0cec    O...    ASR      r12,r12,#3
        0x00000e36:    eba40ccc    ....    SUB      r12,r4,r12,LSL #3
        0x00000e3a:    f1bc0f00    ....    CMP      r12,#0
        0x00000e3e:    d002        ..      BEQ      0xe46 ; LCD_ShowChar_color + 54
        0x00000e40:    f04f0c01    O...    MOV      r12,#1
        0x00000e44:    e001        ..      B        0xe4a ; LCD_ShowChar_color + 58
        0x00000e46:    f04f0c00    O...    MOV      r12,#0
        0x00000e4a:    4463        cD      ADD      r3,r3,r12
        0x00000e4c:    4622        "F      MOV      r2,r4
        0x00000e4e:    eb047cd2    ...|    ADD      r12,r4,r2,LSR #31
        0x00000e52:    ea4f0c6c    O.l.    ASR      r12,r12,#1
        0x00000e56:    fb03f30c    ....    MUL      r3,r3,r12
        0x00000e5a:    b2db        ..      UXTB     r3,r3
        0x00000e5c:    9300        ..      STR      r3,[sp,#0]
        0x00000e5e:    f1a70020    .. .    SUB      r0,r7,#0x20
        0x00000e62:    b2c7        ..      UXTB     r7,r0
        0x00000e64:    2500        .%      MOVS     r5,#0
        0x00000e66:    e054        T.      B        0xf12 ; LCD_ShowChar_color + 258
        0x00000e68:    2c0c        .,      CMP      r4,#0xc
        0x00000e6a:    d107        ..      BNE      0xe7c ; LCD_ShowChar_color + 108
        0x00000e6c:    eb070047    ..G.    ADD      r0,r7,r7,LSL #1
        0x00000e70:    492a        *I      LDR      r1,[pc,#168] ; [0xf1c] = 0x2c48
        0x00000e72:    eb010080    ....    ADD      r0,r1,r0,LSL #2
        0x00000e76:    f8109005    ....    LDRB     r9,[r0,r5]
        0x00000e7a:    e013        ..      B        0xea4 ; LCD_ShowChar_color + 148
        0x00000e7c:    2c10        .,      CMP      r4,#0x10
        0x00000e7e:    d105        ..      BNE      0xe8c ; LCD_ShowChar_color + 124
        0x00000e80:    4827        'H      LDR      r0,[pc,#156] ; [0xf20] = 0x30bc
        0x00000e82:    eb001007    ....    ADD      r0,r0,r7,LSL #4
        0x00000e86:    f8109005    ....    LDRB     r9,[r0,r5]
        0x00000e8a:    e00b        ..      B        0xea4 ; LCD_ShowChar_color + 148
        0x00000e8c:    2c18        .,      CMP      r4,#0x18
        0x00000e8e:    d107        ..      BNE      0xea0 ; LCD_ShowChar_color + 144
        0x00000e90:    eb0700c7    ....    ADD      r0,r7,r7,LSL #3
        0x00000e94:    4923        #I      LDR      r1,[pc,#140] ; [0xf24] = 0x36ac
        0x00000e96:    eb010080    ....    ADD      r0,r1,r0,LSL #2
        0x00000e9a:    f8109005    ....    LDRB     r9,[r0,r5]
        0x00000e9e:    e001        ..      B        0xea4 ; LCD_ShowChar_color + 148
        0x00000ea0:    e8bd8ff8    ....    POP      {r3-r11,pc}
        0x00000ea4:    f04f0a00    O...    MOV      r10,#0
        0x00000ea8:    e02d        -.      B        0xf06 ; LCD_ShowChar_color + 246
        0x00000eaa:    f0090080    ....    AND      r0,r9,#0x80
        0x00000eae:    b128        (.      CBZ      r0,0xebc ; LCD_ShowChar_color + 172
        0x00000eb0:    4631        1F      MOV      r1,r6
        0x00000eb2:    4640        @F      MOV      r0,r8
        0x00000eb4:    9a0b        ..      LDR      r2,[sp,#0x2c]
        0x00000eb6:    f7fffa85    ....    BL       LCD_Fast_DrawPoint ; 0x3c4
        0x00000eba:    e006        ..      B        0xeca ; LCD_ShowChar_color + 186
        0x00000ebc:    980a        ..      LDR      r0,[sp,#0x28]
        0x00000ebe:    b920         .      CBNZ     r0,0xeca ; LCD_ShowChar_color + 186
        0x00000ec0:    4631        1F      MOV      r1,r6
        0x00000ec2:    4640        @F      MOV      r0,r8
        0x00000ec4:    9a0c        ..      LDR      r2,[sp,#0x30]
        0x00000ec6:    f7fffa7d    ..}.    BL       LCD_Fast_DrawPoint ; 0x3c4
        0x00000eca:    ea4f6049    O.I`    LSL      r0,r9,#25
        0x00000ece:    ea4f6910    O..i    LSR      r9,r0,#24
        0x00000ed2:    1c70        p.      ADDS     r0,r6,#1
        0x00000ed4:    b286        ..      UXTH     r6,r0
        0x00000ed6:    4814        .H      LDR      r0,[pc,#80] ; [0xf28] = 0x20000014
        0x00000ed8:    8840        @.      LDRH     r0,[r0,#2]
        0x00000eda:    42b0        .B      CMP      r0,r6
        0x00000edc:    dc00        ..      BGT      0xee0 ; LCD_ShowChar_color + 208
        0x00000ede:    e7df        ..      B        0xea0 ; LCD_ShowChar_color + 144
        0x00000ee0:    eba6000b    ....    SUB      r0,r6,r11
        0x00000ee4:    42a0        .B      CMP      r0,r4
        0x00000ee6:    d10a        ..      BNE      0xefe ; LCD_ShowChar_color + 238
        0x00000ee8:    465e        ^F      MOV      r6,r11
        0x00000eea:    f1080001    ....    ADD      r0,r8,#1
        0x00000eee:    fa1ff880    ....    UXTH     r8,r0
        0x00000ef2:    480d        .H      LDR      r0,[pc,#52] ; [0xf28] = 0x20000014
        0x00000ef4:    8800        ..      LDRH     r0,[r0,#0]
        0x00000ef6:    4540        @E      CMP      r0,r8
        0x00000ef8:    dc00        ..      BGT      0xefc ; LCD_ShowChar_color + 236
        0x00000efa:    e7d1        ..      B        0xea0 ; LCD_ShowChar_color + 144
        0x00000efc:    e006        ..      B        0xf0c ; LCD_ShowChar_color + 252
        0x00000efe:    f10a0001    ....    ADD      r0,r10,#1
        0x00000f02:    f0000aff    ....    AND      r10,r0,#0xff
        0x00000f06:    f1ba0f08    ....    CMP      r10,#8
        0x00000f0a:    dbce        ..      BLT      0xeaa ; LCD_ShowChar_color + 154
        0x00000f0c:    bf00        ..      NOP      
        0x00000f0e:    1c68        h.      ADDS     r0,r5,#1
        0x00000f10:    b2c5        ..      UXTB     r5,r0
        0x00000f12:    9800        ..      LDR      r0,[sp,#0]
        0x00000f14:    4285        .B      CMP      r5,r0
        0x00000f16:    dba7        ..      BLT      0xe68 ; LCD_ShowChar_color + 88
        0x00000f18:    bf00        ..      NOP      
        0x00000f1a:    e7c1        ..      B        0xea0 ; LCD_ShowChar_color + 144
    $d
        0x00000f1c:    00002c48    H,..    DCD    11336
        0x00000f20:    000030bc    .0..    DCD    12476
        0x00000f24:    000036ac    .6..    DCD    13996
        0x00000f28:    20000014    ...     DCD    536870932
    $t
    i.LCD_ShowString_color
    LCD_ShowString_color
        0x00000f2c:    e92d4fff    -..O    PUSH     {r0-r11,lr}
        0x00000f30:    4604        .F      MOV      r4,r0
        0x00000f32:    460d        .F      MOV      r5,r1
        0x00000f34:    4690        .F      MOV      r8,r2
        0x00000f36:    4699        .F      MOV      r9,r3
        0x00000f38:    ae0d        ..      ADD      r6,sp,#0x34
        0x00000f3a:    e8960cc0    ....    LDM      r6,{r6,r7,r10,r11}
        0x00000f3e:    b2e0        ..      UXTB     r0,r4
        0x00000f40:    9003        ..      STR      r0,[sp,#0xc]
        0x00000f42:    eb080004    ....    ADD      r0,r8,r4
        0x00000f46:    fa1ff880    ....    UXTH     r8,r0
        0x00000f4a:    eb090005    ....    ADD      r0,r9,r5
        0x00000f4e:    fa1ff980    ....    UXTH     r9,r0
        0x00000f52:    e017        ..      B        0xf84 ; LCD_ShowString_color + 88
        0x00000f54:    4544        DE      CMP      r4,r8
        0x00000f56:    db02        ..      BLT      0xf5e ; LCD_ShowString_color + 50
        0x00000f58:    9c03        ..      LDR      r4,[sp,#0xc]
        0x00000f5a:    19a8        ..      ADDS     r0,r5,r6
        0x00000f5c:    b285        ..      UXTH     r5,r0
        0x00000f5e:    454d        ME      CMP      r5,r9
        0x00000f60:    db00        ..      BLT      0xf64 ; LCD_ShowString_color + 56
        0x00000f62:    e015        ..      B        0xf90 ; LCD_ShowString_color + 100
        0x00000f64:    2000        .       MOVS     r0,#0
        0x00000f66:    e88d0c01    ....    STM      sp,{r0,r10,r11}
        0x00000f6a:    783a        :x      LDRB     r2,[r7,#0]
        0x00000f6c:    4633        3F      MOV      r3,r6
        0x00000f6e:    4629        )F      MOV      r1,r5
        0x00000f70:    4620         F      MOV      r0,r4
        0x00000f72:    f7ffff4d    ..M.    BL       LCD_ShowChar_color ; 0xe10
        0x00000f76:    4630        0F      MOV      r0,r6
        0x00000f78:    eb0671d0    ...q    ADD      r1,r6,r0,LSR #31
        0x00000f7c:    eb040161    ..a.    ADD      r1,r4,r1,ASR #1
        0x00000f80:    b28c        ..      UXTH     r4,r1
        0x00000f82:    1c7f        ..      ADDS     r7,r7,#1
        0x00000f84:    7838        8x      LDRB     r0,[r7,#0]
        0x00000f86:    287e        ~(      CMP      r0,#0x7e
        0x00000f88:    dc02        ..      BGT      0xf90 ; LCD_ShowString_color + 100
        0x00000f8a:    7838        8x      LDRB     r0,[r7,#0]
        0x00000f8c:    2820         (      CMP      r0,#0x20
        0x00000f8e:    dae1        ..      BGE      0xf54 ; LCD_ShowString_color + 40
        0x00000f90:    bf00        ..      NOP      
        0x00000f92:    e8bd8fff    ....    POP      {r0-r11,pc}
    i.LCD_ShowxNum_color
    LCD_ShowxNum_color
        0x00000f96:    e92d4fff    -..O    PUSH     {r0-r11,lr}
        0x00000f9a:    b085        ..      SUB      sp,sp,#0x14
        0x00000f9c:    4606        .F      MOV      r6,r0
        0x00000f9e:    461f        .F      MOV      r7,r3
        0x00000fa0:    ac12        ..      ADD      r4,sp,#0x48
        0x00000fa2:    e8940710    ....    LDM      r4,{r4,r8-r10}
        0x00000fa6:    2000        .       MOVS     r0,#0
        0x00000fa8:    9004        ..      STR      r0,[sp,#0x10]
        0x00000faa:    2500        .%      MOVS     r5,#0
        0x00000fac:    e051        Q.      B        0x1052 ; LCD_ShowxNum_color + 188
        0x00000fae:    1b78        x.      SUBS     r0,r7,r5
        0x00000fb0:    1e40        @.      SUBS     r0,r0,#1
        0x00000fb2:    b2c1        ..      UXTB     r1,r0
        0x00000fb4:    200a        .       MOVS     r0,#0xa
        0x00000fb6:    f7fffcad    ....    BL       LCD_Pow ; 0x914
        0x00000fba:    9907        ..      LDR      r1,[sp,#0x1c]
        0x00000fbc:    fbb1f0f0    ....    UDIV     r0,r1,r0
        0x00000fc0:    210a        .!      MOVS     r1,#0xa
        0x00000fc2:    fbb0f2f1    ....    UDIV     r2,r0,r1
        0x00000fc6:    fb010b12    ....    MLS      r11,r1,r2,r0
        0x00000fca:    9804        ..      LDR      r0,[sp,#0x10]
        0x00000fcc:    bb60        `.      CBNZ     r0,0x1028 ; LCD_ShowxNum_color + 146
        0x00000fce:    1e78        x.      SUBS     r0,r7,#1
        0x00000fd0:    42a8        .B      CMP      r0,r5
        0x00000fd2:    dd29        ).      BLE      0x1028 ; LCD_ShowxNum_color + 146
        0x00000fd4:    f1bb0f00    ....    CMP      r11,#0
        0x00000fd8:    d124        $.      BNE      0x1024 ; LCD_ShowxNum_color + 142
        0x00000fda:    f0080080    ....    AND      r0,r8,#0x80
        0x00000fde:    b180        ..      CBZ      r0,0x1002 ; LCD_ShowxNum_color + 108
        0x00000fe0:    f0080001    ....    AND      r0,r8,#1
        0x00000fe4:    eb0471d4    ...q    ADD      r1,r4,r4,LSR #31
        0x00000fe8:    1049        I.      ASRS     r1,r1,#1
        0x00000fea:    fb016105    ...a    MLA      r1,r1,r5,r6
        0x00000fee:    e88d0601    ....    STM      sp,{r0,r9,r10}
        0x00000ff2:    9403        ..      STR      r4,[sp,#0xc]
        0x00000ff4:    b288        ..      UXTH     r0,r1
        0x00000ff6:    4623        #F      MOV      r3,r4
        0x00000ff8:    2230        0"      MOVS     r2,#0x30
        0x00000ffa:    9906        ..      LDR      r1,[sp,#0x18]
        0x00000ffc:    f7ffff08    ....    BL       LCD_ShowChar_color ; 0xe10
        0x00001000:    e00f        ..      B        0x1022 ; LCD_ShowxNum_color + 140
        0x00001002:    f0080001    ....    AND      r0,r8,#1
        0x00001006:    eb0471d4    ...q    ADD      r1,r4,r4,LSR #31
        0x0000100a:    1049        I.      ASRS     r1,r1,#1
        0x0000100c:    fb016105    ...a    MLA      r1,r1,r5,r6
        0x00001010:    e88d0601    ....    STM      sp,{r0,r9,r10}
        0x00001014:    9403        ..      STR      r4,[sp,#0xc]
        0x00001016:    b288        ..      UXTH     r0,r1
        0x00001018:    4623        #F      MOV      r3,r4
        0x0000101a:    2220         "      MOVS     r2,#0x20
        0x0000101c:    9906        ..      LDR      r1,[sp,#0x18]
        0x0000101e:    f7fffef7    ....    BL       LCD_ShowChar_color ; 0xe10
        0x00001022:    e014        ..      B        0x104e ; LCD_ShowxNum_color + 184
        0x00001024:    2001        .       MOVS     r0,#1
        0x00001026:    9004        ..      STR      r0,[sp,#0x10]
        0x00001028:    f0080001    ....    AND      r0,r8,#1
        0x0000102c:    eb0471d4    ...q    ADD      r1,r4,r4,LSR #31
        0x00001030:    1049        I.      ASRS     r1,r1,#1
        0x00001032:    fb016105    ...a    MLA      r1,r1,r5,r6
        0x00001036:    e88d0601    ....    STM      sp,{r0,r9,r10}
        0x0000103a:    9403        ..      STR      r4,[sp,#0xc]
        0x0000103c:    b288        ..      UXTH     r0,r1
        0x0000103e:    f10b0130    ..0.    ADD      r1,r11,#0x30
        0x00001042:    b2ca        ..      UXTB     r2,r1
        0x00001044:    4623        #F      MOV      r3,r4
        0x00001046:    9906        ..      LDR      r1,[sp,#0x18]
        0x00001048:    f7fffee2    ....    BL       LCD_ShowChar_color ; 0xe10
        0x0000104c:    bf00        ..      NOP      
        0x0000104e:    1c68        h.      ADDS     r0,r5,#1
        0x00001050:    b2c5        ..      UXTB     r5,r0
        0x00001052:    42bd        .B      CMP      r5,r7
        0x00001054:    dbab        ..      BLT      0xfae ; LCD_ShowxNum_color + 24
        0x00001056:    b009        ..      ADD      sp,sp,#0x24
        0x00001058:    e8bd8ff0    ....    POP      {r4-r11,pc}
    i.LCD_WR_DATAX
    LCD_WR_DATAX
        0x0000105c:    b500        ..      PUSH     {lr}
        0x0000105e:    4603        .F      MOV      r3,r0
        0x00001060:    2001        .       MOVS     r0,#1
        0x00001062:    490b        .I      LDR      r1,[pc,#44] ; [0x1090] = 0x40003000
        0x00001064:    6048        H`      STR      r0,[r1,#4]
        0x00001066:    2000        .       MOVS     r0,#0
        0x00001068:    6008        .`      STR      r0,[r1,#0]
        0x0000106a:    f44f70fa    O..p    MOV      r0,#0x1f4
        0x0000106e:    f000fb7b    ..{.    BL       delay ; 0x1768
        0x00001072:    4618        .F      MOV      r0,r3
        0x00001074:    f000f84a    ..J.    BL       MakeData ; 0x110c
        0x00001078:    2000        .       MOVS     r0,#0
        0x0000107a:    4905        .I      LDR      r1,[pc,#20] ; [0x1090] = 0x40003000
        0x0000107c:    6088        .`      STR      r0,[r1,#8]
        0x0000107e:    f44f70fa    O..p    MOV      r0,#0x1f4
        0x00001082:    f000fb71    ..q.    BL       delay ; 0x1768
        0x00001086:    2001        .       MOVS     r0,#1
        0x00001088:    4901        .I      LDR      r1,[pc,#4] ; [0x1090] = 0x40003000
        0x0000108a:    6088        .`      STR      r0,[r1,#8]
        0x0000108c:    6008        .`      STR      r0,[r1,#0]
        0x0000108e:    bd00        ..      POP      {pc}
    $d
        0x00001090:    40003000    .0.@    DCD    1073754112
    $t
    i.LCD_WR_REG
    LCD_WR_REG
        0x00001094:    b500        ..      PUSH     {lr}
        0x00001096:    4603        .F      MOV      r3,r0
        0x00001098:    2000        .       MOVS     r0,#0
        0x0000109a:    490b        .I      LDR      r1,[pc,#44] ; [0x10c8] = 0x40003000
        0x0000109c:    6048        H`      STR      r0,[r1,#4]
        0x0000109e:    6008        .`      STR      r0,[r1,#0]
        0x000010a0:    f44f70fa    O..p    MOV      r0,#0x1f4
        0x000010a4:    f000fb60    ..`.    BL       delay ; 0x1768
        0x000010a8:    4618        .F      MOV      r0,r3
        0x000010aa:    f000f82f    ../.    BL       MakeData ; 0x110c
        0x000010ae:    2000        .       MOVS     r0,#0
        0x000010b0:    4905        .I      LDR      r1,[pc,#20] ; [0x10c8] = 0x40003000
        0x000010b2:    6088        .`      STR      r0,[r1,#8]
        0x000010b4:    f44f70fa    O..p    MOV      r0,#0x1f4
        0x000010b8:    f000fb56    ..V.    BL       delay ; 0x1768
        0x000010bc:    2001        .       MOVS     r0,#1
        0x000010be:    4902        .I      LDR      r1,[pc,#8] ; [0x10c8] = 0x40003000
        0x000010c0:    6088        .`      STR      r0,[r1,#8]
        0x000010c2:    6008        .`      STR      r0,[r1,#0]
        0x000010c4:    bd00        ..      POP      {pc}
    $d
        0x000010c6:    0000        ..      DCW    0
        0x000010c8:    40003000    .0.@    DCD    1073754112
    $t
    i.LCD_WriteRAM_Prepare
    LCD_WriteRAM_Prepare
        0x000010cc:    b500        ..      PUSH     {lr}
        0x000010ce:    4902        .I      LDR      r1,[pc,#8] ; [0x10d8] = 0x20000014
        0x000010d0:    8908        ..      LDRH     r0,[r1,#8]
        0x000010d2:    f7ffffdf    ....    BL       LCD_WR_REG ; 0x1094
        0x000010d6:    bd00        ..      POP      {pc}
    $d
        0x000010d8:    20000014    ...     DCD    536870932
    $t
    i.LCD_WriteReg
    LCD_WriteReg
        0x000010dc:    b530        0.      PUSH     {r4,r5,lr}
        0x000010de:    4605        .F      MOV      r5,r0
        0x000010e0:    460c        .F      MOV      r4,r1
        0x000010e2:    4628        (F      MOV      r0,r5
        0x000010e4:    f7ffffd6    ....    BL       LCD_WR_REG ; 0x1094
        0x000010e8:    2001        .       MOVS     r0,#1
        0x000010ea:    4907        .I      LDR      r1,[pc,#28] ; [0x1108] = 0x40003000
        0x000010ec:    6048        H`      STR      r0,[r1,#4]
        0x000010ee:    2000        .       MOVS     r0,#0
        0x000010f0:    6008        .`      STR      r0,[r1,#0]
        0x000010f2:    4620         F      MOV      r0,r4
        0x000010f4:    f000f80a    ....    BL       MakeData ; 0x110c
        0x000010f8:    2000        .       MOVS     r0,#0
        0x000010fa:    4903        .I      LDR      r1,[pc,#12] ; [0x1108] = 0x40003000
        0x000010fc:    6088        .`      STR      r0,[r1,#8]
        0x000010fe:    2001        .       MOVS     r0,#1
        0x00001100:    6088        .`      STR      r0,[r1,#8]
        0x00001102:    6008        .`      STR      r0,[r1,#0]
        0x00001104:    bd30        0.      POP      {r4,r5,pc}
    $d
        0x00001106:    0000        ..      DCW    0
        0x00001108:    40003000    .0.@    DCD    1073754112
    $t
    i.MakeData
    MakeData
        0x0000110c:    f0000101    ....    AND      r1,r0,#1
        0x00001110:    4a17        .J      LDR      r2,[pc,#92] ; [0x1170] = 0x40003000
        0x00001112:    6191        .a      STR      r1,[r2,#0x18]
        0x00001114:    f3c00240    ..@.    UBFX     r2,r0,#1,#1
        0x00001118:    4915        .I      LDR      r1,[pc,#84] ; [0x1170] = 0x40003000
        0x0000111a:    61ca        .a      STR      r2,[r1,#0x1c]
        0x0000111c:    f3c00280    ....    UBFX     r2,r0,#2,#1
        0x00001120:    620a        .b      STR      r2,[r1,#0x20]
        0x00001122:    f3c002c0    ....    UBFX     r2,r0,#3,#1
        0x00001126:    624a        Jb      STR      r2,[r1,#0x24]
        0x00001128:    f3c01200    ....    UBFX     r2,r0,#4,#1
        0x0000112c:    628a        .b      STR      r2,[r1,#0x28]
        0x0000112e:    f3c01240    ..@.    UBFX     r2,r0,#5,#1
        0x00001132:    62ca        .b      STR      r2,[r1,#0x2c]
        0x00001134:    f3c01280    ....    UBFX     r2,r0,#6,#1
        0x00001138:    630a        .c      STR      r2,[r1,#0x30]
        0x0000113a:    f3c012c0    ....    UBFX     r2,r0,#7,#1
        0x0000113e:    634a        Jc      STR      r2,[r1,#0x34]
        0x00001140:    f3c02200    ..."    UBFX     r2,r0,#8,#1
        0x00001144:    638a        .c      STR      r2,[r1,#0x38]
        0x00001146:    f3c02240    ..@"    UBFX     r2,r0,#9,#1
        0x0000114a:    63ca        .c      STR      r2,[r1,#0x3c]
        0x0000114c:    f3c02280    ..."    UBFX     r2,r0,#10,#1
        0x00001150:    640a        .d      STR      r2,[r1,#0x40]
        0x00001152:    f3c022c0    ..."    UBFX     r2,r0,#11,#1
        0x00001156:    644a        Jd      STR      r2,[r1,#0x44]
        0x00001158:    f3c03200    ...2    UBFX     r2,r0,#12,#1
        0x0000115c:    648a        .d      STR      r2,[r1,#0x48]
        0x0000115e:    f3c03240    ..@2    UBFX     r2,r0,#13,#1
        0x00001162:    64ca        .d      STR      r2,[r1,#0x4c]
        0x00001164:    f3c03280    ...2    UBFX     r2,r0,#14,#1
        0x00001168:    650a        .e      STR      r2,[r1,#0x50]
        0x0000116a:    0bc2        ..      LSRS     r2,r0,#15
        0x0000116c:    654a        Je      STR      r2,[r1,#0x54]
        0x0000116e:    4770        pG      BX       lr
    $d
        0x00001170:    40003000    .0.@    DCD    1073754112
    $t
    i.MemManageHandler
    MemManageHandler
        0x00001174:    4770        pG      BX       lr
    i.NMIHandler
    NMIHandler
        0x00001176:    4770        pG      BX       lr
    i.NVIC_EnableIRQ
    NVIC_EnableIRQ
        0x00001178:    f000021f    ....    AND      r2,r0,#0x1f
        0x0000117c:    2101        .!      MOVS     r1,#1
        0x0000117e:    4091        .@      LSLS     r1,r1,r2
        0x00001180:    0942        B.      LSRS     r2,r0,#5
        0x00001182:    0092        ..      LSLS     r2,r2,#2
        0x00001184:    f10222e0    ..."    ADD      r2,r2,#0xe000e000
        0x00001188:    f8c21100    ....    STR      r1,[r2,#0x100]
        0x0000118c:    4770        pG      BX       lr
    i.PendSVHandler
    PendSVHandler
        0x0000118e:    4770        pG      BX       lr
    i.ReadData
    ReadData
        0x00001190:    2100        .!      MOVS     r1,#0
        0x00001192:    2000        .       MOVS     r0,#0
        0x00001194:    e008        ..      B        0x11a8 ; ReadData + 24
        0x00001196:    4a06        .J      LDR      r2,[pc,#24] ; [0x11b0] = 0x40003018
        0x00001198:    f8522020    R.      LDR      r2,[r2,r0,LSL #2]
        0x0000119c:    2a01        .*      CMP      r2,#1
        0x0000119e:    d102        ..      BNE      0x11a6 ; ReadData + 22
        0x000011a0:    4082        .@      LSLS     r2,r2,r0
        0x000011a2:    440a        .D      ADD      r2,r2,r1
        0x000011a4:    b291        ..      UXTH     r1,r2
        0x000011a6:    1c40        @.      ADDS     r0,r0,#1
        0x000011a8:    2810        .(      CMP      r0,#0x10
        0x000011aa:    dbf4        ..      BLT      0x1196 ; ReadData + 6
        0x000011ac:    4608        .F      MOV      r0,r1
        0x000011ae:    4770        pG      BX       lr
    $d
        0x000011b0:    40003018    .0.@    DCD    1073754136
    $t
    i.SVCHandler
    SVCHandler
        0x000011b4:    4770        pG      BX       lr
    i.Set_SysTick_CTRL
    Set_SysTick_CTRL
        0x000011b6:    f04f21e0    O..!    MOV      r1,#0xe000e000
        0x000011ba:    6108        .a      STR      r0,[r1,#0x10]
        0x000011bc:    4770        pG      BX       lr
    i.Set_SysTick_LOAD
    Set_SysTick_LOAD
        0x000011be:    f04f21e0    O..!    MOV      r1,#0xe000e000
        0x000011c2:    6148        Ha      STR      r0,[r1,#0x14]
        0x000011c4:    4770        pG      BX       lr
    i.Set_SysTick_VALUE
    Set_SysTick_VALUE
        0x000011c6:    f04f21e0    O..!    MOV      r1,#0xe000e000
        0x000011ca:    6188        .a      STR      r0,[r1,#0x18]
        0x000011cc:    4770        pG      BX       lr
        0x000011ce:    0000        ..      MOVS     r0,r0
    i.SysTickHandler
    SysTickHandler
        0x000011d0:    b510        ..      PUSH     {r4,lr}
        0x000011d2:    2000        .       MOVS     r0,#0
        0x000011d4:    f7ffffef    ....    BL       Set_SysTick_CTRL ; 0x11b6
        0x000011d8:    4803        .H      LDR      r0,[pc,#12] ; [0x11e8] = 0xe000ed04
        0x000011da:    6800        .h      LDR      r0,[r0,#0]
        0x000011dc:    f0407000    @..p    ORR      r0,r0,#0x2000000
        0x000011e0:    4901        .I      LDR      r1,[pc,#4] ; [0x11e8] = 0xe000ed04
        0x000011e2:    6008        .`      STR      r0,[r1,#0]
        0x000011e4:    bd10        ..      POP      {r4,pc}
    $d
        0x000011e6:    0000        ..      DCW    0
        0x000011e8:    e000ed04    ....    DCD    3758157060
    $t
    i.SystemInit
    SystemInit
        0x000011ec:    b53e        >.      PUSH     {r1-r5,lr}
        0x000011ee:    4814        .H      LDR      r0,[pc,#80] ; [0x1240] = 0x2faf080
        0x000011f0:    4914        .I      LDR      r1,[pc,#80] ; [0x1244] = 0x2000000c
        0x000011f2:    6008        .`      STR      r0,[r1,#0]
        0x000011f4:    f04f30ff    O..0    MOV      r0,#0xffffffff
        0x000011f8:    f7ffffbe    ....    BL       NVIC_EnableIRQ ; 0x1178
        0x000011fc:    2003        .       MOVS     r0,#3
        0x000011fe:    f7ffffbb    ....    BL       NVIC_EnableIRQ ; 0x1178
        0x00001202:    2004        .       MOVS     r0,#4
        0x00001204:    f7ffffb8    ....    BL       NVIC_EnableIRQ ; 0x1178
        0x00001208:    480e        .H      LDR      r0,[pc,#56] ; [0x1244] = 0x2000000c
        0x0000120a:    6800        .h      LDR      r0,[r0,#0]
        0x0000120c:    f44f5116    O..Q    MOV      r1,#0x2580
        0x00001210:    fbb0f4f1    ....    UDIV     r4,r0,r1
        0x00001214:    2000        .       MOVS     r0,#0
        0x00001216:    9000        ..      STR      r0,[sp,#0]
        0x00001218:    9001        ..      STR      r0,[sp,#4]
        0x0000121a:    4603        .F      MOV      r3,r0
        0x0000121c:    2201        ."      MOVS     r2,#1
        0x0000121e:    4611        .F      MOV      r1,r2
        0x00001220:    9002        ..      STR      r0,[sp,#8]
        0x00001222:    4620         F      MOV      r0,r4
        0x00001224:    f001fc49    ..I.    BL       uart_init ; 0x2aba
        0x00001228:    2000        .       MOVS     r0,#0
        0x0000122a:    4907        .I      LDR      r1,[pc,#28] ; [0x1248] = 0x40003000
        0x0000122c:    6108        .a      STR      r0,[r1,#0x10]
        0x0000122e:    4807        .H      LDR      r0,[pc,#28] ; [0x124c] = 0x4c4b40
        0x00001230:    f000fa9a    ....    BL       delay ; 0x1768
        0x00001234:    2001        .       MOVS     r0,#1
        0x00001236:    4904        .I      LDR      r1,[pc,#16] ; [0x1248] = 0x40003000
        0x00001238:    6108        .a      STR      r0,[r1,#0x10]
        0x0000123a:    f7fff957    ..W.    BL       LCD_Init ; 0x4ec
        0x0000123e:    bd3e        >.      POP      {r1-r5,pc}
    $d
        0x00001240:    02faf080    ....    DCD    50000000
        0x00001244:    2000000c    ...     DCD    536870924
        0x00001248:    40003000    .0.@    DCD    1073754112
        0x0000124c:    004c4b40    @KL.    DCD    5000000
    $t
    i.TIMER0Handler
    TIMER0Handler
        0x00001250:    2001        .       MOVS     r0,#1
        0x00001252:    491e        .I      LDR      r1,[pc,#120] ; [0x12cc] = 0x40001000
        0x00001254:    60c8        .`      STR      r0,[r1,#0xc]
        0x00001256:    481e        .H      LDR      r0,[pc,#120] ; [0x12d0] = 0x20000000
        0x00001258:    6800        .h      LDR      r0,[r0,#0]
        0x0000125a:    1c40        @.      ADDS     r0,r0,#1
        0x0000125c:    491c        .I      LDR      r1,[pc,#112] ; [0x12d0] = 0x20000000
        0x0000125e:    6008        .`      STR      r0,[r1,#0]
        0x00001260:    4608        .F      MOV      r0,r1
        0x00001262:    6800        .h      LDR      r0,[r0,#0]
        0x00001264:    2819        .(      CMP      r0,#0x19
        0x00001266:    d106        ..      BNE      0x1276 ; TIMER0Handler + 38
        0x00001268:    4608        .F      MOV      r0,r1
        0x0000126a:    6840        @h      LDR      r0,[r0,#4]
        0x0000126c:    4919        .I      LDR      r1,[pc,#100] ; [0x12d4] = 0x44b4
        0x0000126e:    f8510020    Q. .    LDR      r0,[r1,r0,LSL #2]
        0x00001272:    2801        .(      CMP      r0,#1
        0x00001274:    d00a        ..      BEQ      0x128c ; TIMER0Handler + 60
        0x00001276:    4816        .H      LDR      r0,[pc,#88] ; [0x12d0] = 0x20000000
        0x00001278:    6800        .h      LDR      r0,[r0,#0]
        0x0000127a:    2832        2(      CMP      r0,#0x32
        0x0000127c:    d124        $.      BNE      0x12c8 ; TIMER0Handler + 120
        0x0000127e:    4814        .H      LDR      r0,[pc,#80] ; [0x12d0] = 0x20000000
        0x00001280:    6840        @h      LDR      r0,[r0,#4]
        0x00001282:    4914        .I      LDR      r1,[pc,#80] ; [0x12d4] = 0x44b4
        0x00001284:    f8510020    Q. .    LDR      r0,[r1,r0,LSL #2]
        0x00001288:    2802        .(      CMP      r0,#2
        0x0000128a:    d11d        ..      BNE      0x12c8 ; TIMER0Handler + 120
        0x0000128c:    2000        .       MOVS     r0,#0
        0x0000128e:    4910        .I      LDR      r1,[pc,#64] ; [0x12d0] = 0x20000000
        0x00001290:    6008        .`      STR      r0,[r1,#0]
        0x00001292:    4608        .F      MOV      r0,r1
        0x00001294:    6840        @h      LDR      r0,[r0,#4]
        0x00001296:    1c40        @.      ADDS     r0,r0,#1
        0x00001298:    212b        +!      MOVS     r1,#0x2b
        0x0000129a:    fbb0f2f1    ....    UDIV     r2,r0,r1
        0x0000129e:    fb010012    ....    MLS      r0,r1,r2,r0
        0x000012a2:    490b        .I      LDR      r1,[pc,#44] ; [0x12d0] = 0x20000000
        0x000012a4:    6048        H`      STR      r0,[r1,#4]
        0x000012a6:    2000        .       MOVS     r0,#0
        0x000012a8:    490b        .I      LDR      r1,[pc,#44] ; [0x12d8] = 0x40002000
        0x000012aa:    6008        .`      STR      r0,[r1,#0]
        0x000012ac:    4808        .H      LDR      r0,[pc,#32] ; [0x12d0] = 0x20000000
        0x000012ae:    6840        @h      LDR      r0,[r0,#4]
        0x000012b0:    490a        .I      LDR      r1,[pc,#40] ; [0x12dc] = 0x4408
        0x000012b2:    f8510020    Q. .    LDR      r0,[r1,r0,LSL #2]
        0x000012b6:    490a        .I      LDR      r1,[pc,#40] ; [0x12e0] = 0x17d7840
        0x000012b8:    fb91f0f0    ....    SDIV     r0,r1,r0
        0x000012bc:    4906        .I      LDR      r1,[pc,#24] ; [0x12d8] = 0x40002000
        0x000012be:    6088        .`      STR      r0,[r1,#8]
        0x000012c0:    2000        .       MOVS     r0,#0
        0x000012c2:    6048        H`      STR      r0,[r1,#4]
        0x000012c4:    2009        .       MOVS     r0,#9
        0x000012c6:    6008        .`      STR      r0,[r1,#0]
        0x000012c8:    4770        pG      BX       lr
    $d
        0x000012ca:    0000        ..      DCW    0
        0x000012cc:    40001000    ...@    DCD    1073745920
        0x000012d0:    20000000    ...     DCD    536870912
        0x000012d4:    000044b4    .D..    DCD    17588
        0x000012d8:    40002000    . .@    DCD    1073750016
        0x000012dc:    00004408    .D..    DCD    17416
        0x000012e0:    017d7840    @x}.    DCD    25000000
    $t
    i.TIMER1Handler
    TIMER1Handler
        0x000012e4:    2001        .       MOVS     r0,#1
        0x000012e6:    4904        .I      LDR      r1,[pc,#16] ; [0x12f8] = 0x40002000
        0x000012e8:    60c8        .`      STR      r0,[r1,#0xc]
        0x000012ea:    4804        .H      LDR      r0,[pc,#16] ; [0x12fc] = 0x40006000
        0x000012ec:    6800        .h      LDR      r0,[r0,#0]
        0x000012ee:    43c0        .C      MVNS     r0,r0
        0x000012f0:    4902        .I      LDR      r1,[pc,#8] ; [0x12fc] = 0x40006000
        0x000012f2:    6008        .`      STR      r0,[r1,#0]
        0x000012f4:    4770        pG      BX       lr
    $d
        0x000012f6:    0000        ..      DCW    0
        0x000012f8:    40002000    . .@    DCD    1073750016
        0x000012fc:    40006000    .`.@    DCD    1073766400
    $t
    i.Timer_Init
    Timer_Init
        0x00001300:    b500        ..      PUSH     {lr}
        0x00001302:    f000f80f    ....    BL       Timer_Para_Init ; 0x1324
        0x00001306:    2000        .       MOVS     r0,#0
        0x00001308:    4904        .I      LDR      r1,[pc,#16] ; [0x131c] = 0x40001000
        0x0000130a:    6008        .`      STR      r0,[r1,#0]
        0x0000130c:    4804        .H      LDR      r0,[pc,#16] ; [0x1320] = 0x7a120
        0x0000130e:    6088        .`      STR      r0,[r1,#8]
        0x00001310:    2000        .       MOVS     r0,#0
        0x00001312:    6048        H`      STR      r0,[r1,#4]
        0x00001314:    2009        .       MOVS     r0,#9
        0x00001316:    6008        .`      STR      r0,[r1,#0]
        0x00001318:    bd00        ..      POP      {pc}
    $d
        0x0000131a:    0000        ..      DCW    0
        0x0000131c:    40001000    ...@    DCD    1073745920
        0x00001320:    0007a120     ...    DCD    500000
    $t
    i.Timer_Para_Init
    Timer_Para_Init
        0x00001324:    2000        .       MOVS     r0,#0
        0x00001326:    4902        .I      LDR      r1,[pc,#8] ; [0x1330] = 0x20000000
        0x00001328:    6008        .`      STR      r0,[r1,#0]
        0x0000132a:    202a        *       MOVS     r0,#0x2a
        0x0000132c:    6048        H`      STR      r0,[r1,#4]
        0x0000132e:    4770        pG      BX       lr
    $d
        0x00001330:    20000000    ...     DCD    536870912
    $t
    i.UARTOVRHandler
    UARTOVRHandler
        0x00001334:    4770        pG      BX       lr
    i.UARTRXHandler
    UARTRXHandler
        0x00001336:    4770        pG      BX       lr
    i.UARTTXHandler
    UARTTXHandler
        0x00001338:    4770        pG      BX       lr
    i.UsageFaultHandler
    UsageFaultHandler
        0x0000133a:    4770        pG      BX       lr
    i.__scatterload_copy
    __scatterload_copy
        0x0000133c:    e002        ..      B        0x1344 ; __scatterload_copy + 8
        0x0000133e:    c808        ..      LDM      r0!,{r3}
        0x00001340:    1f12        ..      SUBS     r2,r2,#4
        0x00001342:    c108        ..      STM      r1!,{r3}
        0x00001344:    2a00        .*      CMP      r2,#0
        0x00001346:    d1fa        ..      BNE      0x133e ; __scatterload_copy + 2
        0x00001348:    4770        pG      BX       lr
    i.__scatterload_null
    __scatterload_null
        0x0000134a:    4770        pG      BX       lr
    i.__scatterload_zeroinit
    __scatterload_zeroinit
        0x0000134c:    2000        .       MOVS     r0,#0
        0x0000134e:    e001        ..      B        0x1354 ; __scatterload_zeroinit + 8
        0x00001350:    c101        ..      STM      r1!,{r0}
        0x00001352:    1f12        ..      SUBS     r2,r2,#4
        0x00001354:    2a00        .*      CMP      r2,#0
        0x00001356:    d1fb        ..      BNE      0x1350 ; __scatterload_zeroinit + 4
        0x00001358:    4770        pG      BX       lr
    i.all_init
    all_init
        0x0000135a:    b510        ..      PUSH     {r4,lr}
        0x0000135c:    f24070ff    @..p    MOV      r0,#0x7ff
        0x00001360:    f7fefeec    ....    BL       LCD_Clear ; 0x13c
        0x00001364:    f000ffd6    ....    BL       draw_start_page ; 0x2314
        0x00001368:    f7ffffca    ....    BL       Timer_Init ; 0x1300
        0x0000136c:    f001f9fc    ....    BL       key0_to_skip ; 0x2768
        0x00001370:    f64f70ff    O..p    MOV      r0,#0xffff
        0x00001374:    f7fefee2    ....    BL       LCD_Clear ; 0x13c
        0x00001378:    f001f8fc    ....    BL       init_interface_info ; 0x2574
        0x0000137c:    f001f992    ....    BL       init_play_interface ; 0x26a4
        0x00001380:    f000fa5c    ..\.    BL       draw_all_through_struct ; 0x183c
        0x00001384:    f44f70fa    O..p    MOV      r0,#0x1f4
        0x00001388:    f000f9fe    ....    BL       delay_ms ; 0x1788
        0x0000138c:    bd10        ..      POP      {r4,pc}
        0x0000138e:    0000        ..      MOVS     r0,r0
    i.check_my_buttles_to_boss_collide
    check_my_buttles_to_boss_collide
        0x00001390:    e92d43f8    -..C    PUSH     {r3-r9,lr}
        0x00001394:    4607        .F      MOV      r7,r0
        0x00001396:    4688        .F      MOV      r8,r1
        0x00001398:    4616        .F      MOV      r6,r2
        0x0000139a:    461c        .F      MOV      r4,r3
        0x0000139c:    2500        .%      MOVS     r5,#0
        0x0000139e:    e051        Q.      B        0x1444 ; check_my_buttles_to_boss_collide + 180
        0x000013a0:    f8560035    V.5.    LDR      r0,[r6,r5,LSL #3]
        0x000013a4:    2800        .(      CMP      r0,#0
        0x000013a6:    d04c        L.      BEQ      0x1442 ; check_my_buttles_to_boss_collide + 178
        0x000013a8:    f8561035    V.5.    LDR      r1,[r6,r5,LSL #3]
        0x000013ac:    6822        "h      LDR      r2,[r4,#0]
        0x000013ae:    1a88        ..      SUBS     r0,r1,r2
        0x000013b0:    2800        .(      CMP      r0,#0
        0x000013b2:    db01        ..      BLT      0x13b8 ; check_my_buttles_to_boss_collide + 40
        0x000013b4:    4601        .F      MOV      r1,r0
        0x000013b6:    e000        ..      B        0x13ba ; check_my_buttles_to_boss_collide + 42
        0x000013b8:    4241        AB      RSBS     r1,r0,#0
        0x000013ba:    2929        ))      CMP      r1,#0x29
        0x000013bc:    dc41        A.      BGT      0x1442 ; check_my_buttles_to_boss_collide + 178
        0x000013be:    eb0601c5    ....    ADD      r1,r6,r5,LSL #3
        0x000013c2:    6849        Ih      LDR      r1,[r1,#4]
        0x000013c4:    6862        bh      LDR      r2,[r4,#4]
        0x000013c6:    1a88        ..      SUBS     r0,r1,r2
        0x000013c8:    2800        .(      CMP      r0,#0
        0x000013ca:    db01        ..      BLT      0x13d0 ; check_my_buttles_to_boss_collide + 64
        0x000013cc:    4601        .F      MOV      r1,r0
        0x000013ce:    e000        ..      B        0x13d2 ; check_my_buttles_to_boss_collide + 66
        0x000013d0:    4241        AB      RSBS     r1,r0,#0
        0x000013d2:    2929        ))      CMP      r1,#0x29
        0x000013d4:    dc35        5.      BGT      0x1442 ; check_my_buttles_to_boss_collide + 178
        0x000013d6:    f64f70ff    O..p    MOV      r0,#0xffff
        0x000013da:    9000        ..      STR      r0,[sp,#0]
        0x000013dc:    f8d4c004    ....    LDR      r12,[r4,#4]
        0x000013e0:    f10c0328    ..(.    ADD      r3,r12,#0x28
        0x000013e4:    f8d4c000    ....    LDR      r12,[r4,#0]
        0x000013e8:    f10c0228    ..(.    ADD      r2,r12,#0x28
        0x000013ec:    f8d4c004    ....    LDR      r12,[r4,#4]
        0x000013f0:    f1ac0128    ..(.    SUB      r1,r12,#0x28
        0x000013f4:    f8d4c000    ....    LDR      r12,[r4,#0]
        0x000013f8:    f1ac0028    ..(.    SUB      r0,r12,#0x28
        0x000013fc:    f7fff840    ..@.    BL       LCD_Fill ; 0x480
        0x00001400:    2000        .       MOVS     r0,#0
        0x00001402:    f8460035    F.5.    STR      r0,[r6,r5,LSL #3]
        0x00001406:    eb0601c5    ....    ADD      r1,r6,r5,LSL #3
        0x0000140a:    6048        H`      STR      r0,[r1,#4]
        0x0000140c:    f8d79000    ....    LDR      r9,[r7,#0]
        0x00001410:    f1090001    ....    ADD      r0,r9,#1
        0x00001414:    6038        8`      STR      r0,[r7,#0]
        0x00001416:    f8d89000    ....    LDR      r9,[r8,#0]
        0x0000141a:    f1a90001    ....    SUB      r0,r9,#1
        0x0000141e:    f8c80000    ....    STR      r0,[r8,#0]
        0x00001422:    480b        .H      LDR      r0,[pc,#44] ; [0x1450] = 0x40005000
        0x00001424:    6800        .h      LDR      r0,[r0,#0]
        0x00001426:    f0400002    @...    ORR      r0,r0,#2
        0x0000142a:    4909        .I      LDR      r1,[pc,#36] ; [0x1450] = 0x40005000
        0x0000142c:    6008        .`      STR      r0,[r1,#0]
        0x0000142e:    2014        .       MOVS     r0,#0x14
        0x00001430:    f000f9aa    ....    BL       delay_ms ; 0x1788
        0x00001434:    4806        .H      LDR      r0,[pc,#24] ; [0x1450] = 0x40005000
        0x00001436:    6800        .h      LDR      r0,[r0,#0]
        0x00001438:    f0200002     ...    BIC      r0,r0,#2
        0x0000143c:    4904        .I      LDR      r1,[pc,#16] ; [0x1450] = 0x40005000
        0x0000143e:    6008        .`      STR      r0,[r1,#0]
        0x00001440:    e002        ..      B        0x1448 ; check_my_buttles_to_boss_collide + 184
        0x00001442:    1c6d        m.      ADDS     r5,r5,#1
        0x00001444:    2d14        .-      CMP      r5,#0x14
        0x00001446:    dbab        ..      BLT      0x13a0 ; check_my_buttles_to_boss_collide + 16
        0x00001448:    bf00        ..      NOP      
        0x0000144a:    e8bd83f8    ....    POP      {r3-r9,pc}
    $d
        0x0000144e:    0000        ..      DCW    0
        0x00001450:    40005000    .P.@    DCD    1073762304
    $t
    i.check_my_buttles_to_enemy_plane_collide
    check_my_buttles_to_enemy_plane_collide
        0x00001454:    e92d43f8    -..C    PUSH     {r3-r9,lr}
        0x00001458:    4680        .F      MOV      r8,r0
        0x0000145a:    460f        .F      MOV      r7,r1
        0x0000145c:    4615        .F      MOV      r5,r2
        0x0000145e:    2400        .$      MOVS     r4,#0
        0x00001460:    e05e        ^.      B        0x1520 ; check_my_buttles_to_enemy_plane_collide + 204
        0x00001462:    f8550034    U.4.    LDR      r0,[r5,r4,LSL #3]
        0x00001466:    2800        .(      CMP      r0,#0
        0x00001468:    d059        Y.      BEQ      0x151e ; check_my_buttles_to_enemy_plane_collide + 202
        0x0000146a:    2600        .&      MOVS     r6,#0
        0x0000146c:    e054        T.      B        0x1518 ; check_my_buttles_to_enemy_plane_collide + 196
        0x0000146e:    f8571036    W.6.    LDR      r1,[r7,r6,LSL #3]
        0x00001472:    f8552034    U.4     LDR      r2,[r5,r4,LSL #3]
        0x00001476:    1a88        ..      SUBS     r0,r1,r2
        0x00001478:    2800        .(      CMP      r0,#0
        0x0000147a:    db01        ..      BLT      0x1480 ; check_my_buttles_to_enemy_plane_collide + 44
        0x0000147c:    4601        .F      MOV      r1,r0
        0x0000147e:    e000        ..      B        0x1482 ; check_my_buttles_to_enemy_plane_collide + 46
        0x00001480:    4241        AB      RSBS     r1,r0,#0
        0x00001482:    290f        .)      CMP      r1,#0xf
        0x00001484:    dc47        G.      BGT      0x1516 ; check_my_buttles_to_enemy_plane_collide + 194
        0x00001486:    eb0701c6    ....    ADD      r1,r7,r6,LSL #3
        0x0000148a:    6849        Ih      LDR      r1,[r1,#4]
        0x0000148c:    eb0502c4    ....    ADD      r2,r5,r4,LSL #3
        0x00001490:    6852        Rh      LDR      r2,[r2,#4]
        0x00001492:    1a88        ..      SUBS     r0,r1,r2
        0x00001494:    2800        .(      CMP      r0,#0
        0x00001496:    db01        ..      BLT      0x149c ; check_my_buttles_to_enemy_plane_collide + 72
        0x00001498:    4601        .F      MOV      r1,r0
        0x0000149a:    e000        ..      B        0x149e ; check_my_buttles_to_enemy_plane_collide + 74
        0x0000149c:    4241        AB      RSBS     r1,r0,#0
        0x0000149e:    290f        .)      CMP      r1,#0xf
        0x000014a0:    dc39        9.      BGT      0x1516 ; check_my_buttles_to_enemy_plane_collide + 194
        0x000014a2:    f64f70ff    O..p    MOV      r0,#0xffff
        0x000014a6:    eb050cc4    ....    ADD      r12,r5,r4,LSL #3
        0x000014aa:    9000        ..      STR      r0,[sp,#0]
        0x000014ac:    f8dcc004    ....    LDR      r12,[r12,#4]
        0x000014b0:    f10c030e    ....    ADD      r3,r12,#0xe
        0x000014b4:    f855c034    U.4.    LDR      r12,[r5,r4,LSL #3]
        0x000014b8:    f10c020e    ....    ADD      r2,r12,#0xe
        0x000014bc:    eb050cc4    ....    ADD      r12,r5,r4,LSL #3
        0x000014c0:    f8dcc004    ....    LDR      r12,[r12,#4]
        0x000014c4:    f1ac010e    ....    SUB      r1,r12,#0xe
        0x000014c8:    f855c034    U.4.    LDR      r12,[r5,r4,LSL #3]
        0x000014cc:    f1ac000e    ....    SUB      r0,r12,#0xe
        0x000014d0:    f7feffd6    ....    BL       LCD_Fill ; 0x480
        0x000014d4:    2000        .       MOVS     r0,#0
        0x000014d6:    f8470036    G.6.    STR      r0,[r7,r6,LSL #3]
        0x000014da:    eb0701c6    ....    ADD      r1,r7,r6,LSL #3
        0x000014de:    6048        H`      STR      r0,[r1,#4]
        0x000014e0:    f8450034    E.4.    STR      r0,[r5,r4,LSL #3]
        0x000014e4:    eb0501c4    ....    ADD      r1,r5,r4,LSL #3
        0x000014e8:    6048        H`      STR      r0,[r1,#4]
        0x000014ea:    f8d89000    ....    LDR      r9,[r8,#0]
        0x000014ee:    f1090001    ....    ADD      r0,r9,#1
        0x000014f2:    f8c80000    ....    STR      r0,[r8,#0]
        0x000014f6:    480c        .H      LDR      r0,[pc,#48] ; [0x1528] = 0x40005000
        0x000014f8:    6800        .h      LDR      r0,[r0,#0]
        0x000014fa:    f0400002    @...    ORR      r0,r0,#2
        0x000014fe:    490a        .I      LDR      r1,[pc,#40] ; [0x1528] = 0x40005000
        0x00001500:    6008        .`      STR      r0,[r1,#0]
        0x00001502:    2014        .       MOVS     r0,#0x14
        0x00001504:    f000f940    ..@.    BL       delay_ms ; 0x1788
        0x00001508:    4807        .H      LDR      r0,[pc,#28] ; [0x1528] = 0x40005000
        0x0000150a:    6800        .h      LDR      r0,[r0,#0]
        0x0000150c:    f0200002     ...    BIC      r0,r0,#2
        0x00001510:    4905        .I      LDR      r1,[pc,#20] ; [0x1528] = 0x40005000
        0x00001512:    6008        .`      STR      r0,[r1,#0]
        0x00001514:    e002        ..      B        0x151c ; check_my_buttles_to_enemy_plane_collide + 200
        0x00001516:    1c76        v.      ADDS     r6,r6,#1
        0x00001518:    2e14        ..      CMP      r6,#0x14
        0x0000151a:    dba8        ..      BLT      0x146e ; check_my_buttles_to_enemy_plane_collide + 26
        0x0000151c:    bf00        ..      NOP      
        0x0000151e:    1c64        d.      ADDS     r4,r4,#1
        0x00001520:    2c05        .,      CMP      r4,#5
        0x00001522:    db9e        ..      BLT      0x1462 ; check_my_buttles_to_enemy_plane_collide + 14
        0x00001524:    e8bd83f8    ....    POP      {r3-r9,pc}
    $d
        0x00001528:    40005000    .P.@    DCD    1073762304
    $t
    i.check_my_plane_to_enemy_buttles_collide
    check_my_plane_to_enemy_buttles_collide
        0x0000152c:    e92d43f8    -..C    PUSH     {r3-r9,lr}
        0x00001530:    4607        .F      MOV      r7,r0
        0x00001532:    460e        .F      MOV      r6,r1
        0x00001534:    4614        .F      MOV      r4,r2
        0x00001536:    2500        .%      MOVS     r5,#0
        0x00001538:    e050        P.      B        0x15dc ; check_my_plane_to_enemy_buttles_collide + 176
        0x0000153a:    f8560035    V.5.    LDR      r0,[r6,r5,LSL #3]
        0x0000153e:    2800        .(      CMP      r0,#0
        0x00001540:    d04b        K.      BEQ      0x15da ; check_my_plane_to_enemy_buttles_collide + 174
        0x00001542:    f8561035    V.5.    LDR      r1,[r6,r5,LSL #3]
        0x00001546:    6822        "h      LDR      r2,[r4,#0]
        0x00001548:    1a88        ..      SUBS     r0,r1,r2
        0x0000154a:    2800        .(      CMP      r0,#0
        0x0000154c:    db01        ..      BLT      0x1552 ; check_my_plane_to_enemy_buttles_collide + 38
        0x0000154e:    4601        .F      MOV      r1,r0
        0x00001550:    e000        ..      B        0x1554 ; check_my_plane_to_enemy_buttles_collide + 40
        0x00001552:    4241        AB      RSBS     r1,r0,#0
        0x00001554:    290f        .)      CMP      r1,#0xf
        0x00001556:    dc40        @.      BGT      0x15da ; check_my_plane_to_enemy_buttles_collide + 174
        0x00001558:    eb0601c5    ....    ADD      r1,r6,r5,LSL #3
        0x0000155c:    6849        Ih      LDR      r1,[r1,#4]
        0x0000155e:    6862        bh      LDR      r2,[r4,#4]
        0x00001560:    1a88        ..      SUBS     r0,r1,r2
        0x00001562:    2800        .(      CMP      r0,#0
        0x00001564:    db01        ..      BLT      0x156a ; check_my_plane_to_enemy_buttles_collide + 62
        0x00001566:    4601        .F      MOV      r1,r0
        0x00001568:    e000        ..      B        0x156c ; check_my_plane_to_enemy_buttles_collide + 64
        0x0000156a:    4241        AB      RSBS     r1,r0,#0
        0x0000156c:    290f        .)      CMP      r1,#0xf
        0x0000156e:    dc34        4.      BGT      0x15da ; check_my_plane_to_enemy_buttles_collide + 174
        0x00001570:    f64f70ff    O..p    MOV      r0,#0xffff
        0x00001574:    9000        ..      STR      r0,[sp,#0]
        0x00001576:    f8d4c004    ....    LDR      r12,[r4,#4]
        0x0000157a:    f10c030e    ....    ADD      r3,r12,#0xe
        0x0000157e:    f8d4c000    ....    LDR      r12,[r4,#0]
        0x00001582:    f10c020e    ....    ADD      r2,r12,#0xe
        0x00001586:    f8d4c004    ....    LDR      r12,[r4,#4]
        0x0000158a:    f1ac010e    ....    SUB      r1,r12,#0xe
        0x0000158e:    f8d4c000    ....    LDR      r12,[r4,#0]
        0x00001592:    f1ac000e    ....    SUB      r0,r12,#0xe
        0x00001596:    f7feff73    ..s.    BL       LCD_Fill ; 0x480
        0x0000159a:    2078        x       MOVS     r0,#0x78
        0x0000159c:    6020         `      STR      r0,[r4,#0]
        0x0000159e:    f44f7091    O..p    MOV      r0,#0x122
        0x000015a2:    6060        ``      STR      r0,[r4,#4]
        0x000015a4:    2000        .       MOVS     r0,#0
        0x000015a6:    f8460035    F.5.    STR      r0,[r6,r5,LSL #3]
        0x000015aa:    eb0601c5    ....    ADD      r1,r6,r5,LSL #3
        0x000015ae:    6048        H`      STR      r0,[r1,#4]
        0x000015b0:    f8d78000    ....    LDR      r8,[r7,#0]
        0x000015b4:    f1a80001    ....    SUB      r0,r8,#1
        0x000015b8:    6038        8`      STR      r0,[r7,#0]
        0x000015ba:    480b        .H      LDR      r0,[pc,#44] ; [0x15e8] = 0x40005000
        0x000015bc:    6800        .h      LDR      r0,[r0,#0]
        0x000015be:    f0400001    @...    ORR      r0,r0,#1
        0x000015c2:    4909        .I      LDR      r1,[pc,#36] ; [0x15e8] = 0x40005000
        0x000015c4:    6008        .`      STR      r0,[r1,#0]
        0x000015c6:    2014        .       MOVS     r0,#0x14
        0x000015c8:    f000f8de    ....    BL       delay_ms ; 0x1788
        0x000015cc:    4806        .H      LDR      r0,[pc,#24] ; [0x15e8] = 0x40005000
        0x000015ce:    6800        .h      LDR      r0,[r0,#0]
        0x000015d0:    f0200001     ...    BIC      r0,r0,#1
        0x000015d4:    4904        .I      LDR      r1,[pc,#16] ; [0x15e8] = 0x40005000
        0x000015d6:    6008        .`      STR      r0,[r1,#0]
        0x000015d8:    e002        ..      B        0x15e0 ; check_my_plane_to_enemy_buttles_collide + 180
        0x000015da:    1c6d        m.      ADDS     r5,r5,#1
        0x000015dc:    2d32        2-      CMP      r5,#0x32
        0x000015de:    dbac        ..      BLT      0x153a ; check_my_plane_to_enemy_buttles_collide + 14
        0x000015e0:    bf00        ..      NOP      
        0x000015e2:    e8bd83f8    ....    POP      {r3-r9,pc}
    $d
        0x000015e6:    0000        ..      DCW    0
        0x000015e8:    40005000    .P.@    DCD    1073762304
    $t
    i.check_my_plane_to_enemy_plane_collide
    check_my_plane_to_enemy_plane_collide
        0x000015ec:    e92d43f8    -..C    PUSH     {r3-r9,lr}
        0x000015f0:    4607        .F      MOV      r7,r0
        0x000015f2:    4688        .F      MOV      r8,r1
        0x000015f4:    4616        .F      MOV      r6,r2
        0x000015f6:    461d        .F      MOV      r5,r3
        0x000015f8:    2400        .$      MOVS     r4,#0
        0x000015fa:    e06f        o.      B        0x16dc ; check_my_plane_to_enemy_plane_collide + 240
        0x000015fc:    f8550034    U.4.    LDR      r0,[r5,r4,LSL #3]
        0x00001600:    2800        .(      CMP      r0,#0
        0x00001602:    d06a        j.      BEQ      0x16da ; check_my_plane_to_enemy_plane_collide + 238
        0x00001604:    f8551034    U.4.    LDR      r1,[r5,r4,LSL #3]
        0x00001608:    6832        2h      LDR      r2,[r6,#0]
        0x0000160a:    1a88        ..      SUBS     r0,r1,r2
        0x0000160c:    2800        .(      CMP      r0,#0
        0x0000160e:    db01        ..      BLT      0x1614 ; check_my_plane_to_enemy_plane_collide + 40
        0x00001610:    4601        .F      MOV      r1,r0
        0x00001612:    e000        ..      B        0x1616 ; check_my_plane_to_enemy_plane_collide + 42
        0x00001614:    4241        AB      RSBS     r1,r0,#0
        0x00001616:    291c        .)      CMP      r1,#0x1c
        0x00001618:    dc5f        _.      BGT      0x16da ; check_my_plane_to_enemy_plane_collide + 238
        0x0000161a:    eb0501c4    ....    ADD      r1,r5,r4,LSL #3
        0x0000161e:    6849        Ih      LDR      r1,[r1,#4]
        0x00001620:    6872        rh      LDR      r2,[r6,#4]
        0x00001622:    1a88        ..      SUBS     r0,r1,r2
        0x00001624:    2800        .(      CMP      r0,#0
        0x00001626:    db01        ..      BLT      0x162c ; check_my_plane_to_enemy_plane_collide + 64
        0x00001628:    4601        .F      MOV      r1,r0
        0x0000162a:    e000        ..      B        0x162e ; check_my_plane_to_enemy_plane_collide + 66
        0x0000162c:    4241        AB      RSBS     r1,r0,#0
        0x0000162e:    291c        .)      CMP      r1,#0x1c
        0x00001630:    dc53        S.      BGT      0x16da ; check_my_plane_to_enemy_plane_collide + 238
        0x00001632:    f64f70ff    O..p    MOV      r0,#0xffff
        0x00001636:    9000        ..      STR      r0,[sp,#0]
        0x00001638:    f8d6c004    ....    LDR      r12,[r6,#4]
        0x0000163c:    f10c030e    ....    ADD      r3,r12,#0xe
        0x00001640:    f8d6c000    ....    LDR      r12,[r6,#0]
        0x00001644:    f10c020e    ....    ADD      r2,r12,#0xe
        0x00001648:    f8d6c004    ....    LDR      r12,[r6,#4]
        0x0000164c:    f1ac010e    ....    SUB      r1,r12,#0xe
        0x00001650:    f8d6c000    ....    LDR      r12,[r6,#0]
        0x00001654:    f1ac000e    ....    SUB      r0,r12,#0xe
        0x00001658:    f7feff12    ....    BL       LCD_Fill ; 0x480
        0x0000165c:    f64f70ff    O..p    MOV      r0,#0xffff
        0x00001660:    eb050cc4    ....    ADD      r12,r5,r4,LSL #3
        0x00001664:    9000        ..      STR      r0,[sp,#0]
        0x00001666:    f8dcc004    ....    LDR      r12,[r12,#4]
        0x0000166a:    f10c030e    ....    ADD      r3,r12,#0xe
        0x0000166e:    f855c034    U.4.    LDR      r12,[r5,r4,LSL #3]
        0x00001672:    f10c020e    ....    ADD      r2,r12,#0xe
        0x00001676:    eb050cc4    ....    ADD      r12,r5,r4,LSL #3
        0x0000167a:    f8dcc004    ....    LDR      r12,[r12,#4]
        0x0000167e:    f1ac010e    ....    SUB      r1,r12,#0xe
        0x00001682:    f855c034    U.4.    LDR      r12,[r5,r4,LSL #3]
        0x00001686:    f1ac000e    ....    SUB      r0,r12,#0xe
        0x0000168a:    f7fefef9    ....    BL       LCD_Fill ; 0x480
        0x0000168e:    2078        x       MOVS     r0,#0x78
        0x00001690:    6030        0`      STR      r0,[r6,#0]
        0x00001692:    f44f7091    O..p    MOV      r0,#0x122
        0x00001696:    6070        p`      STR      r0,[r6,#4]
        0x00001698:    2000        .       MOVS     r0,#0
        0x0000169a:    f8450034    E.4.    STR      r0,[r5,r4,LSL #3]
        0x0000169e:    eb0501c4    ....    ADD      r1,r5,r4,LSL #3
        0x000016a2:    6048        H`      STR      r0,[r1,#4]
        0x000016a4:    f8d79000    ....    LDR      r9,[r7,#0]
        0x000016a8:    f1090001    ....    ADD      r0,r9,#1
        0x000016ac:    6038        8`      STR      r0,[r7,#0]
        0x000016ae:    f8d89000    ....    LDR      r9,[r8,#0]
        0x000016b2:    f1a90001    ....    SUB      r0,r9,#1
        0x000016b6:    f8c80000    ....    STR      r0,[r8,#0]
        0x000016ba:    480b        .H      LDR      r0,[pc,#44] ; [0x16e8] = 0x40005000
        0x000016bc:    6800        .h      LDR      r0,[r0,#0]
        0x000016be:    f0400001    @...    ORR      r0,r0,#1
        0x000016c2:    4909        .I      LDR      r1,[pc,#36] ; [0x16e8] = 0x40005000
        0x000016c4:    6008        .`      STR      r0,[r1,#0]
        0x000016c6:    2014        .       MOVS     r0,#0x14
        0x000016c8:    f000f85e    ..^.    BL       delay_ms ; 0x1788
        0x000016cc:    4806        .H      LDR      r0,[pc,#24] ; [0x16e8] = 0x40005000
        0x000016ce:    6800        .h      LDR      r0,[r0,#0]
        0x000016d0:    f0200001     ...    BIC      r0,r0,#1
        0x000016d4:    4904        .I      LDR      r1,[pc,#16] ; [0x16e8] = 0x40005000
        0x000016d6:    6008        .`      STR      r0,[r1,#0]
        0x000016d8:    e002        ..      B        0x16e0 ; check_my_plane_to_enemy_plane_collide + 244
        0x000016da:    1c64        d.      ADDS     r4,r4,#1
        0x000016dc:    2c05        .,      CMP      r4,#5
        0x000016de:    db8d        ..      BLT      0x15fc ; check_my_plane_to_enemy_plane_collide + 16
        0x000016e0:    bf00        ..      NOP      
        0x000016e2:    e8bd83f8    ....    POP      {r3-r9,pc}
    $d
        0x000016e6:    0000        ..      DCW    0
        0x000016e8:    40005000    .P.@    DCD    1073762304
    $t
    i.clear_all_enemy_plane
    clear_all_enemy_plane
        0x000016ec:    e92d43f8    -..C    PUSH     {r3-r9,lr}
        0x000016f0:    4607        .F      MOV      r7,r0
        0x000016f2:    4688        .F      MOV      r8,r1
        0x000016f4:    4615        .F      MOV      r5,r2
        0x000016f6:    461e        .F      MOV      r6,r3
        0x000016f8:    2400        .$      MOVS     r4,#0
        0x000016fa:    e006        ..      B        0x170a ; clear_all_enemy_plane + 30
        0x000016fc:    2000        .       MOVS     r0,#0
        0x000016fe:    f8480034    H.4.    STR      r0,[r8,r4,LSL #3]
        0x00001702:    eb0801c4    ....    ADD      r1,r8,r4,LSL #3
        0x00001706:    6048        H`      STR      r0,[r1,#4]
        0x00001708:    1c64        d.      ADDS     r4,r4,#1
        0x0000170a:    2c05        .,      CMP      r4,#5
        0x0000170c:    dbf6        ..      BLT      0x16fc ; clear_all_enemy_plane + 16
        0x0000170e:    2400        .$      MOVS     r4,#0
        0x00001710:    e009        ..      B        0x1726 ; clear_all_enemy_plane + 58
        0x00001712:    f8550034    U.4.    LDR      r0,[r5,r4,LSL #3]
        0x00001716:    b128        (.      CBZ      r0,0x1724 ; clear_all_enemy_plane + 56
        0x00001718:    2000        .       MOVS     r0,#0
        0x0000171a:    f8450034    E.4.    STR      r0,[r5,r4,LSL #3]
        0x0000171e:    eb0501c4    ....    ADD      r1,r5,r4,LSL #3
        0x00001722:    6048        H`      STR      r0,[r1,#4]
        0x00001724:    1c64        d.      ADDS     r4,r4,#1
        0x00001726:    2c14        .,      CMP      r4,#0x14
        0x00001728:    dbf3        ..      BLT      0x1712 ; clear_all_enemy_plane + 38
        0x0000172a:    2400        .$      MOVS     r4,#0
        0x0000172c:    e009        ..      B        0x1742 ; clear_all_enemy_plane + 86
        0x0000172e:    f8560034    V.4.    LDR      r0,[r6,r4,LSL #3]
        0x00001732:    b128        (.      CBZ      r0,0x1740 ; clear_all_enemy_plane + 84
        0x00001734:    2000        .       MOVS     r0,#0
        0x00001736:    f8460034    F.4.    STR      r0,[r6,r4,LSL #3]
        0x0000173a:    eb0601c4    ....    ADD      r1,r6,r4,LSL #3
        0x0000173e:    6048        H`      STR      r0,[r1,#4]
        0x00001740:    1c64        d.      ADDS     r4,r4,#1
        0x00001742:    2c32        2,      CMP      r4,#0x32
        0x00001744:    dbf3        ..      BLT      0x172e ; clear_all_enemy_plane + 66
        0x00001746:    f64f70ff    O..p    MOV      r0,#0xffff
        0x0000174a:    f44f739f    O..s    MOV      r3,#0x13e
        0x0000174e:    22ef        ."      MOVS     r2,#0xef
        0x00001750:    2129        )!      MOVS     r1,#0x29
        0x00001752:    9000        ..      STR      r0,[sp,#0]
        0x00001754:    2001        .       MOVS     r0,#1
        0x00001756:    f7fefe93    ....    BL       LCD_Fill ; 0x480
        0x0000175a:    221f        ."      MOVS     r2,#0x1f
        0x0000175c:    e9d70100    ....    LDRD     r0,r1,[r7,#0]
        0x00001760:    f000fc20    .. .    BL       draw_my_plane ; 0x1fa4
        0x00001764:    e8bd83f8    ....    POP      {r3-r9,pc}
    i.delay
    delay
        0x00001768:    b500        ..      PUSH     {lr}
        0x0000176a:    4602        .F      MOV      r2,r0
        0x0000176c:    2000        .       MOVS     r0,#0
        0x0000176e:    f7fffd22    ..".    BL       Set_SysTick_CTRL ; 0x11b6
        0x00001772:    4610        .F      MOV      r0,r2
        0x00001774:    f7fffd23    ..#.    BL       Set_SysTick_LOAD ; 0x11be
        0x00001778:    2000        .       MOVS     r0,#0
        0x0000177a:    f7fffd24    ..$.    BL       Set_SysTick_VALUE ; 0x11c6
        0x0000177e:    2007        .       MOVS     r0,#7
        0x00001780:    f7fffd19    ....    BL       Set_SysTick_CTRL ; 0x11b6
        0x00001784:    bf30        0.      WFI      
        0x00001786:    bd00        ..      POP      {pc}
    i.delay_ms
    delay_ms
        0x00001788:    b530        0.      PUSH     {r4,r5,lr}
        0x0000178a:    4604        .F      MOV      r4,r0
        0x0000178c:    2500        .%      MOVS     r5,#0
        0x0000178e:    e004        ..      B        0x179a ; delay_ms + 18
        0x00001790:    f44f707a    O.zp    MOV      r0,#0x3e8
        0x00001794:    f000f804    ....    BL       delay_us ; 0x17a0
        0x00001798:    1c6d        m.      ADDS     r5,r5,#1
        0x0000179a:    42a5        .B      CMP      r5,r4
        0x0000179c:    d3f8        ..      BCC      0x1790 ; delay_ms + 8
        0x0000179e:    bd30        0.      POP      {r4,r5,pc}
    i.delay_us
    delay_us
        0x000017a0:    b500        ..      PUSH     {lr}
        0x000017a2:    4602        .F      MOV      r2,r0
        0x000017a4:    2000        .       MOVS     r0,#0
        0x000017a6:    f7fffd06    ....    BL       Set_SysTick_CTRL ; 0x11b6
        0x000017aa:    2332        2#      MOVS     r3,#0x32
        0x000017ac:    fb02f103    ....    MUL      r1,r2,r3
        0x000017b0:    1e48        H.      SUBS     r0,r1,#1
        0x000017b2:    f7fffd04    ....    BL       Set_SysTick_LOAD ; 0x11be
        0x000017b6:    2000        .       MOVS     r0,#0
        0x000017b8:    f7fffd05    ....    BL       Set_SysTick_VALUE ; 0x11c6
        0x000017bc:    2007        .       MOVS     r0,#7
        0x000017be:    f7fffcfa    ....    BL       Set_SysTick_CTRL ; 0x11b6
        0x000017c2:    bf30        0.      WFI      
        0x000017c4:    bd00        ..      POP      {pc}
    i.draw_all_enemy_buttles
    draw_all_enemy_buttles
        0x000017c6:    b570        p.      PUSH     {r4-r6,lr}
        0x000017c8:    4605        .F      MOV      r5,r0
        0x000017ca:    2400        .$      MOVS     r4,#0
        0x000017cc:    e00c        ..      B        0x17e8 ; draw_all_enemy_buttles + 34
        0x000017ce:    f8550034    U.4.    LDR      r0,[r5,r4,LSL #3]
        0x000017d2:    b140        @.      CBZ      r0,0x17e6 ; draw_all_enemy_buttles + 32
        0x000017d4:    eb0502c4    ....    ADD      r2,r5,r4,LSL #3
        0x000017d8:    f8550034    U.4.    LDR      r0,[r5,r4,LSL #3]
        0x000017dc:    6851        Qh      LDR      r1,[r2,#4]
        0x000017de:    f44f4278    O.xB    MOV      r2,#0xf800
        0x000017e2:    f000faef    ....    BL       draw_enemy_bullet ; 0x1dc4
        0x000017e6:    1c64        d.      ADDS     r4,r4,#1
        0x000017e8:    2c32        2,      CMP      r4,#0x32
        0x000017ea:    dbf0        ..      BLT      0x17ce ; draw_all_enemy_buttles + 8
        0x000017ec:    bd70        p.      POP      {r4-r6,pc}
    i.draw_all_enemy_planes
    draw_all_enemy_planes
        0x000017ee:    b570        p.      PUSH     {r4-r6,lr}
        0x000017f0:    4605        .F      MOV      r5,r0
        0x000017f2:    2400        .$      MOVS     r4,#0
        0x000017f4:    e00c        ..      B        0x1810 ; draw_all_enemy_planes + 34
        0x000017f6:    f8550034    U.4.    LDR      r0,[r5,r4,LSL #3]
        0x000017fa:    b140        @.      CBZ      r0,0x180e ; draw_all_enemy_planes + 32
        0x000017fc:    eb0502c4    ....    ADD      r2,r5,r4,LSL #3
        0x00001800:    f8550034    U.4.    LDR      r0,[r5,r4,LSL #3]
        0x00001804:    6851        Qh      LDR      r1,[r2,#4]
        0x00001806:    f64b4240    K.@B    MOV      r2,#0xbc40
        0x0000180a:    f000fb03    ....    BL       draw_enemy_plane ; 0x1e14
        0x0000180e:    1c64        d.      ADDS     r4,r4,#1
        0x00001810:    2c05        .,      CMP      r4,#5
        0x00001812:    dbf0        ..      BLT      0x17f6 ; draw_all_enemy_planes + 8
        0x00001814:    bd70        p.      POP      {r4-r6,pc}
    i.draw_all_my_buttles
    draw_all_my_buttles
        0x00001816:    b570        p.      PUSH     {r4-r6,lr}
        0x00001818:    4605        .F      MOV      r5,r0
        0x0000181a:    2400        .$      MOVS     r4,#0
        0x0000181c:    e00b        ..      B        0x1836 ; draw_all_my_buttles + 32
        0x0000181e:    f8550034    U.4.    LDR      r0,[r5,r4,LSL #3]
        0x00001822:    b138        8.      CBZ      r0,0x1834 ; draw_all_my_buttles + 30
        0x00001824:    eb0502c4    ....    ADD      r2,r5,r4,LSL #3
        0x00001828:    f8550034    U.4.    LDR      r0,[r5,r4,LSL #3]
        0x0000182c:    6851        Qh      LDR      r1,[r2,#4]
        0x0000182e:    2200        ."      MOVS     r2,#0
        0x00001830:    f000fb90    ....    BL       draw_my_bullet ; 0x1f54
        0x00001834:    1c64        d.      ADDS     r4,r4,#1
        0x00001836:    2c14        .,      CMP      r4,#0x14
        0x00001838:    dbf1        ..      BLT      0x181e ; draw_all_my_buttles + 8
        0x0000183a:    bd70        p.      POP      {r4-r6,pc}
    i.draw_all_through_struct
    draw_all_through_struct
        0x0000183c:    b51f        ..      PUSH     {r0-r4,lr}
        0x0000183e:    480a        .H      LDR      r0,[pc,#40] ; [0x1868] = 0x20000118
        0x00001840:    f1a00128    ..(.    SUB      r1,r0,#0x28
        0x00001844:    f1a00238    ..8.    SUB      r2,r0,#0x38
        0x00001848:    f1a003dc    ....    SUB      r3,r0,#0xdc
        0x0000184c:    e9cd3200    ...2    STRD     r3,r2,[sp,#0]
        0x00001850:    e9cd1002    ....    STRD     r1,r0,[sp,#8]
        0x00001854:    3b18        .;      SUBS     r3,r3,#0x18
        0x00001856:    68da        .h      LDR      r2,[r3,#0xc]
        0x00001858:    f8d310b8    ....    LDR      r1,[r3,#0xb8]
        0x0000185c:    6818        .h      LDR      r0,[r3,#0]
        0x0000185e:    3310        .3      ADDS     r3,r3,#0x10
        0x00001860:    f000fbcd    ....    BL       draw_play_all ; 0x1ffe
        0x00001864:    bd1f        ..      POP      {r0-r4,pc}
    $d
        0x00001866:    0000        ..      DCW    0
        0x00001868:    20000118    ...     DCD    536871192
    $t
    i.draw_boss
    draw_boss
        0x0000186c:    b507        ..      PUSH     {r0-r2,lr}
        0x0000186e:    b0b0        ..      SUB      sp,sp,#0xc0
        0x00001870:    9830        0.      LDR      r0,[sp,#0xc0]
        0x00001872:    380f        .8      SUBS     r0,r0,#0xf
        0x00001874:    902f        /.      STR      r0,[sp,#0xbc]
        0x00001876:    9831        1.      LDR      r0,[sp,#0xc4]
        0x00001878:    3028        (0      ADDS     r0,r0,#0x28
        0x0000187a:    902e        ..      STR      r0,[sp,#0xb8]
        0x0000187c:    9830        0.      LDR      r0,[sp,#0xc0]
        0x0000187e:    300f        .0      ADDS     r0,r0,#0xf
        0x00001880:    902d        -.      STR      r0,[sp,#0xb4]
        0x00001882:    9831        1.      LDR      r0,[sp,#0xc4]
        0x00001884:    3028        (0      ADDS     r0,r0,#0x28
        0x00001886:    902c        ,.      STR      r0,[sp,#0xb0]
        0x00001888:    9830        0.      LDR      r0,[sp,#0xc0]
        0x0000188a:    3814        .8      SUBS     r0,r0,#0x14
        0x0000188c:    902b        +.      STR      r0,[sp,#0xac]
        0x0000188e:    9831        1.      LDR      r0,[sp,#0xc4]
        0x00001890:    3014        .0      ADDS     r0,r0,#0x14
        0x00001892:    902a        *.      STR      r0,[sp,#0xa8]
        0x00001894:    9830        0.      LDR      r0,[sp,#0xc0]
        0x00001896:    3014        .0      ADDS     r0,r0,#0x14
        0x00001898:    9029        ).      STR      r0,[sp,#0xa4]
        0x0000189a:    9831        1.      LDR      r0,[sp,#0xc4]
        0x0000189c:    3014        .0      ADDS     r0,r0,#0x14
        0x0000189e:    9028        (.      STR      r0,[sp,#0xa0]
        0x000018a0:    982b        +.      LDR      r0,[sp,#0xac]
        0x000018a2:    9027        '.      STR      r0,[sp,#0x9c]
        0x000018a4:    982a        *.      LDR      r0,[sp,#0xa8]
        0x000018a6:    1f40        @.      SUBS     r0,r0,#5
        0x000018a8:    9026        &.      STR      r0,[sp,#0x98]
        0x000018aa:    9829        ).      LDR      r0,[sp,#0xa4]
        0x000018ac:    9025        %.      STR      r0,[sp,#0x94]
        0x000018ae:    9828        (.      LDR      r0,[sp,#0xa0]
        0x000018b0:    1f40        @.      SUBS     r0,r0,#5
        0x000018b2:    9024        $.      STR      r0,[sp,#0x90]
        0x000018b4:    9827        '.      LDR      r0,[sp,#0x9c]
        0x000018b6:    9023        #.      STR      r0,[sp,#0x8c]
        0x000018b8:    9826        &.      LDR      r0,[sp,#0x98]
        0x000018ba:    380a        .8      SUBS     r0,r0,#0xa
        0x000018bc:    9022        ".      STR      r0,[sp,#0x88]
        0x000018be:    9825        %.      LDR      r0,[sp,#0x94]
        0x000018c0:    9021        !.      STR      r0,[sp,#0x84]
        0x000018c2:    9824        $.      LDR      r0,[sp,#0x90]
        0x000018c4:    380a        .8      SUBS     r0,r0,#0xa
        0x000018c6:    9020         .      STR      r0,[sp,#0x80]
        0x000018c8:    9823        #.      LDR      r0,[sp,#0x8c]
        0x000018ca:    901f        ..      STR      r0,[sp,#0x7c]
        0x000018cc:    9822        ".      LDR      r0,[sp,#0x88]
        0x000018ce:    381e        .8      SUBS     r0,r0,#0x1e
        0x000018d0:    901e        ..      STR      r0,[sp,#0x78]
        0x000018d2:    9821        !.      LDR      r0,[sp,#0x84]
        0x000018d4:    901d        ..      STR      r0,[sp,#0x74]
        0x000018d6:    9820         .      LDR      r0,[sp,#0x80]
        0x000018d8:    381e        .8      SUBS     r0,r0,#0x1e
        0x000018da:    901c        ..      STR      r0,[sp,#0x70]
        0x000018dc:    981f        ..      LDR      r0,[sp,#0x7c]
        0x000018de:    901b        ..      STR      r0,[sp,#0x6c]
        0x000018e0:    981e        ..      LDR      r0,[sp,#0x78]
        0x000018e2:    380a        .8      SUBS     r0,r0,#0xa
        0x000018e4:    901a        ..      STR      r0,[sp,#0x68]
        0x000018e6:    981d        ..      LDR      r0,[sp,#0x74]
        0x000018e8:    9019        ..      STR      r0,[sp,#0x64]
        0x000018ea:    981c        ..      LDR      r0,[sp,#0x70]
        0x000018ec:    380a        .8      SUBS     r0,r0,#0xa
        0x000018ee:    9018        ..      STR      r0,[sp,#0x60]
        0x000018f0:    981b        ..      LDR      r0,[sp,#0x6c]
        0x000018f2:    9017        ..      STR      r0,[sp,#0x5c]
        0x000018f4:    981a        ..      LDR      r0,[sp,#0x68]
        0x000018f6:    1f40        @.      SUBS     r0,r0,#5
        0x000018f8:    9016        ..      STR      r0,[sp,#0x58]
        0x000018fa:    9819        ..      LDR      r0,[sp,#0x64]
        0x000018fc:    9015        ..      STR      r0,[sp,#0x54]
        0x000018fe:    9818        ..      LDR      r0,[sp,#0x60]
        0x00001900:    1f40        @.      SUBS     r0,r0,#5
        0x00001902:    9014        ..      STR      r0,[sp,#0x50]
        0x00001904:    9827        '.      LDR      r0,[sp,#0x9c]
        0x00001906:    380a        .8      SUBS     r0,r0,#0xa
        0x00001908:    9013        ..      STR      r0,[sp,#0x4c]
        0x0000190a:    9826        &.      LDR      r0,[sp,#0x98]
        0x0000190c:    9012        ..      STR      r0,[sp,#0x48]
        0x0000190e:    9825        %.      LDR      r0,[sp,#0x94]
        0x00001910:    300a        .0      ADDS     r0,r0,#0xa
        0x00001912:    9011        ..      STR      r0,[sp,#0x44]
        0x00001914:    9824        $.      LDR      r0,[sp,#0x90]
        0x00001916:    9010        ..      STR      r0,[sp,#0x40]
        0x00001918:    9823        #.      LDR      r0,[sp,#0x8c]
        0x0000191a:    380a        .8      SUBS     r0,r0,#0xa
        0x0000191c:    900f        ..      STR      r0,[sp,#0x3c]
        0x0000191e:    9822        ".      LDR      r0,[sp,#0x88]
        0x00001920:    900e        ..      STR      r0,[sp,#0x38]
        0x00001922:    9821        !.      LDR      r0,[sp,#0x84]
        0x00001924:    300a        .0      ADDS     r0,r0,#0xa
        0x00001926:    900d        ..      STR      r0,[sp,#0x34]
        0x00001928:    9820         .      LDR      r0,[sp,#0x80]
        0x0000192a:    900c        ..      STR      r0,[sp,#0x30]
        0x0000192c:    981f        ..      LDR      r0,[sp,#0x7c]
        0x0000192e:    380a        .8      SUBS     r0,r0,#0xa
        0x00001930:    900b        ..      STR      r0,[sp,#0x2c]
        0x00001932:    981e        ..      LDR      r0,[sp,#0x78]
        0x00001934:    900a        ..      STR      r0,[sp,#0x28]
        0x00001936:    981d        ..      LDR      r0,[sp,#0x74]
        0x00001938:    300a        .0      ADDS     r0,r0,#0xa
        0x0000193a:    9009        ..      STR      r0,[sp,#0x24]
        0x0000193c:    981c        ..      LDR      r0,[sp,#0x70]
        0x0000193e:    9008        ..      STR      r0,[sp,#0x20]
        0x00001940:    981b        ..      LDR      r0,[sp,#0x6c]
        0x00001942:    380a        .8      SUBS     r0,r0,#0xa
        0x00001944:    9007        ..      STR      r0,[sp,#0x1c]
        0x00001946:    981a        ..      LDR      r0,[sp,#0x68]
        0x00001948:    9006        ..      STR      r0,[sp,#0x18]
        0x0000194a:    9819        ..      LDR      r0,[sp,#0x64]
        0x0000194c:    300a        .0      ADDS     r0,r0,#0xa
        0x0000194e:    9005        ..      STR      r0,[sp,#0x14]
        0x00001950:    9818        ..      LDR      r0,[sp,#0x60]
        0x00001952:    9004        ..      STR      r0,[sp,#0x10]
        0x00001954:    9832        2.      LDR      r0,[sp,#0xc8]
        0x00001956:    9000        ..      STR      r0,[sp,#0]
        0x00001958:    e9dd322c    ..,2    LDRD     r3,r2,[sp,#0xb0]
        0x0000195c:    e9dd102e    ....    LDRD     r1,r0,[sp,#0xb8]
        0x00001960:    f7fefcc0    ....    BL       LCD_DrawLine_color ; 0x2e4
        0x00001964:    9832        2.      LDR      r0,[sp,#0xc8]
        0x00001966:    9000        ..      STR      r0,[sp,#0]
        0x00001968:    e9dd322a    ..*2    LDRD     r3,r2,[sp,#0xa8]
        0x0000196c:    e9dd102e    ....    LDRD     r1,r0,[sp,#0xb8]
        0x00001970:    f7fefcb8    ....    BL       LCD_DrawLine_color ; 0x2e4
        0x00001974:    9832        2.      LDR      r0,[sp,#0xc8]
        0x00001976:    9000        ..      STR      r0,[sp,#0]
        0x00001978:    e9dd3228    ..(2    LDRD     r3,r2,[sp,#0xa0]
        0x0000197c:    e9dd102c    ..,.    LDRD     r1,r0,[sp,#0xb0]
        0x00001980:    f7fefcb0    ....    BL       LCD_DrawLine_color ; 0x2e4
        0x00001984:    9832        2.      LDR      r0,[sp,#0xc8]
        0x00001986:    9000        ..      STR      r0,[sp,#0]
        0x00001988:    e9dd3216    ...2    LDRD     r3,r2,[sp,#0x58]
        0x0000198c:    e9dd102a    ..*.    LDRD     r1,r0,[sp,#0xa8]
        0x00001990:    f7fefca8    ....    BL       LCD_DrawLine_color ; 0x2e4
        0x00001994:    9832        2.      LDR      r0,[sp,#0xc8]
        0x00001996:    9000        ..      STR      r0,[sp,#0]
        0x00001998:    e9dd3214    ...2    LDRD     r3,r2,[sp,#0x50]
        0x0000199c:    e9dd1028    ..(.    LDRD     r1,r0,[sp,#0xa0]
        0x000019a0:    f7fefca0    ....    BL       LCD_DrawLine_color ; 0x2e4
        0x000019a4:    9832        2.      LDR      r0,[sp,#0xc8]
        0x000019a6:    9000        ..      STR      r0,[sp,#0]
        0x000019a8:    e9dd3214    ...2    LDRD     r3,r2,[sp,#0x50]
        0x000019ac:    e9dd1016    ....    LDRD     r1,r0,[sp,#0x58]
        0x000019b0:    f7fefc98    ....    BL       LCD_DrawLine_color ; 0x2e4
        0x000019b4:    9832        2.      LDR      r0,[sp,#0xc8]
        0x000019b6:    9000        ..      STR      r0,[sp,#0]
        0x000019b8:    e9dd3212    ...2    LDRD     r3,r2,[sp,#0x48]
        0x000019bc:    e9dd1026    ..&.    LDRD     r1,r0,[sp,#0x98]
        0x000019c0:    f7fefc90    ....    BL       LCD_DrawLine_color ; 0x2e4
        0x000019c4:    9832        2.      LDR      r0,[sp,#0xc8]
        0x000019c6:    9000        ..      STR      r0,[sp,#0]
        0x000019c8:    e9dd320e    ...2    LDRD     r3,r2,[sp,#0x38]
        0x000019cc:    e9dd1022    ..".    LDRD     r1,r0,[sp,#0x88]
        0x000019d0:    f7fefc88    ....    BL       LCD_DrawLine_color ; 0x2e4
        0x000019d4:    9832        2.      LDR      r0,[sp,#0xc8]
        0x000019d6:    9000        ..      STR      r0,[sp,#0]
        0x000019d8:    e9dd3210    ...2    LDRD     r3,r2,[sp,#0x40]
        0x000019dc:    e9dd1024    ..$.    LDRD     r1,r0,[sp,#0x90]
        0x000019e0:    f7fefc80    ....    BL       LCD_DrawLine_color ; 0x2e4
        0x000019e4:    9832        2.      LDR      r0,[sp,#0xc8]
        0x000019e6:    9000        ..      STR      r0,[sp,#0]
        0x000019e8:    e9dd320c    ...2    LDRD     r3,r2,[sp,#0x30]
        0x000019ec:    e9dd1020    .. .    LDRD     r1,r0,[sp,#0x80]
        0x000019f0:    f7fefc78    ..x.    BL       LCD_DrawLine_color ; 0x2e4
        0x000019f4:    9832        2.      LDR      r0,[sp,#0xc8]
        0x000019f6:    9000        ..      STR      r0,[sp,#0]
        0x000019f8:    e9dd320a    ...2    LDRD     r3,r2,[sp,#0x28]
        0x000019fc:    e9dd101e    ....    LDRD     r1,r0,[sp,#0x78]
        0x00001a00:    f7fefc70    ..p.    BL       LCD_DrawLine_color ; 0x2e4
        0x00001a04:    9832        2.      LDR      r0,[sp,#0xc8]
        0x00001a06:    9000        ..      STR      r0,[sp,#0]
        0x00001a08:    e9dd3206    ...2    LDRD     r3,r2,[sp,#0x18]
        0x00001a0c:    e9dd101a    ....    LDRD     r1,r0,[sp,#0x68]
        0x00001a10:    f7fefc68    ..h.    BL       LCD_DrawLine_color ; 0x2e4
        0x00001a14:    9832        2.      LDR      r0,[sp,#0xc8]
        0x00001a16:    9000        ..      STR      r0,[sp,#0]
        0x00001a18:    e9dd3208    ...2    LDRD     r3,r2,[sp,#0x20]
        0x00001a1c:    e9dd101c    ....    LDRD     r1,r0,[sp,#0x70]
        0x00001a20:    f7fefc60    ..`.    BL       LCD_DrawLine_color ; 0x2e4
        0x00001a24:    9832        2.      LDR      r0,[sp,#0xc8]
        0x00001a26:    9000        ..      STR      r0,[sp,#0]
        0x00001a28:    e9dd3204    ...2    LDRD     r3,r2,[sp,#0x10]
        0x00001a2c:    e9dd1018    ....    LDRD     r1,r0,[sp,#0x60]
        0x00001a30:    f7fefc58    ..X.    BL       LCD_DrawLine_color ; 0x2e4
        0x00001a34:    9832        2.      LDR      r0,[sp,#0xc8]
        0x00001a36:    9000        ..      STR      r0,[sp,#0]
        0x00001a38:    980e        ..      LDR      r0,[sp,#0x38]
        0x00001a3a:    380a        .8      SUBS     r0,r0,#0xa
        0x00001a3c:    4603        .F      MOV      r3,r0
        0x00001a3e:    9003        ..      STR      r0,[sp,#0xc]
        0x00001a40:    9912        ..      LDR      r1,[sp,#0x48]
        0x00001a42:    310a        .1      ADDS     r1,r1,#0xa
        0x00001a44:    9a0f        ..      LDR      r2,[sp,#0x3c]
        0x00001a46:    9813        ..      LDR      r0,[sp,#0x4c]
        0x00001a48:    f7fefc4c    ..L.    BL       LCD_DrawLine_color ; 0x2e4
        0x00001a4c:    9832        2.      LDR      r0,[sp,#0xc8]
        0x00001a4e:    9000        ..      STR      r0,[sp,#0]
        0x00001a50:    9813        ..      LDR      r0,[sp,#0x4c]
        0x00001a52:    380a        .8      SUBS     r0,r0,#0xa
        0x00001a54:    9003        ..      STR      r0,[sp,#0xc]
        0x00001a56:    9b12        ..      LDR      r3,[sp,#0x48]
        0x00001a58:    330a        .3      ADDS     r3,r3,#0xa
        0x00001a5a:    4602        .F      MOV      r2,r0
        0x00001a5c:    9912        ..      LDR      r1,[sp,#0x48]
        0x00001a5e:    310a        .1      ADDS     r1,r1,#0xa
        0x00001a60:    9813        ..      LDR      r0,[sp,#0x4c]
        0x00001a62:    f7fefc3f    ..?.    BL       LCD_DrawLine_color ; 0x2e4
        0x00001a66:    9832        2.      LDR      r0,[sp,#0xc8]
        0x00001a68:    9000        ..      STR      r0,[sp,#0]
        0x00001a6a:    980e        ..      LDR      r0,[sp,#0x38]
        0x00001a6c:    380a        .8      SUBS     r0,r0,#0xa
        0x00001a6e:    9003        ..      STR      r0,[sp,#0xc]
        0x00001a70:    980f        ..      LDR      r0,[sp,#0x3c]
        0x00001a72:    380a        .8      SUBS     r0,r0,#0xa
        0x00001a74:    9002        ..      STR      r0,[sp,#8]
        0x00001a76:    980e        ..      LDR      r0,[sp,#0x38]
        0x00001a78:    380a        .8      SUBS     r0,r0,#0xa
        0x00001a7a:    9001        ..      STR      r0,[sp,#4]
        0x00001a7c:    4601        .F      MOV      r1,r0
        0x00001a7e:    e9dd2302    ...#    LDRD     r2,r3,[sp,#8]
        0x00001a82:    980f        ..      LDR      r0,[sp,#0x3c]
        0x00001a84:    f7fefc2e    ....    BL       LCD_DrawLine_color ; 0x2e4
        0x00001a88:    9832        2.      LDR      r0,[sp,#0xc8]
        0x00001a8a:    9000        ..      STR      r0,[sp,#0]
        0x00001a8c:    980e        ..      LDR      r0,[sp,#0x38]
        0x00001a8e:    380a        .8      SUBS     r0,r0,#0xa
        0x00001a90:    9003        ..      STR      r0,[sp,#0xc]
        0x00001a92:    980f        ..      LDR      r0,[sp,#0x3c]
        0x00001a94:    380a        .8      SUBS     r0,r0,#0xa
        0x00001a96:    9002        ..      STR      r0,[sp,#8]
        0x00001a98:    9813        ..      LDR      r0,[sp,#0x4c]
        0x00001a9a:    380a        .8      SUBS     r0,r0,#0xa
        0x00001a9c:    9001        ..      STR      r0,[sp,#4]
        0x00001a9e:    9912        ..      LDR      r1,[sp,#0x48]
        0x00001aa0:    310a        .1      ADDS     r1,r1,#0xa
        0x00001aa2:    e9dd2302    ...#    LDRD     r2,r3,[sp,#8]
        0x00001aa6:    f7fefc1d    ....    BL       LCD_DrawLine_color ; 0x2e4
        0x00001aaa:    9832        2.      LDR      r0,[sp,#0xc8]
        0x00001aac:    9000        ..      STR      r0,[sp,#0]
        0x00001aae:    9806        ..      LDR      r0,[sp,#0x18]
        0x00001ab0:    1f40        @.      SUBS     r0,r0,#5
        0x00001ab2:    4603        .F      MOV      r3,r0
        0x00001ab4:    9003        ..      STR      r0,[sp,#0xc]
        0x00001ab6:    990a        ..      LDR      r1,[sp,#0x28]
        0x00001ab8:    310a        .1      ADDS     r1,r1,#0xa
        0x00001aba:    9a07        ..      LDR      r2,[sp,#0x1c]
        0x00001abc:    980b        ..      LDR      r0,[sp,#0x2c]
        0x00001abe:    f7fefc11    ....    BL       LCD_DrawLine_color ; 0x2e4
        0x00001ac2:    9832        2.      LDR      r0,[sp,#0xc8]
        0x00001ac4:    9000        ..      STR      r0,[sp,#0]
        0x00001ac6:    980b        ..      LDR      r0,[sp,#0x2c]
        0x00001ac8:    380a        .8      SUBS     r0,r0,#0xa
        0x00001aca:    9003        ..      STR      r0,[sp,#0xc]
        0x00001acc:    9b0a        ..      LDR      r3,[sp,#0x28]
        0x00001ace:    330a        .3      ADDS     r3,r3,#0xa
        0x00001ad0:    4602        .F      MOV      r2,r0
        0x00001ad2:    990a        ..      LDR      r1,[sp,#0x28]
        0x00001ad4:    310a        .1      ADDS     r1,r1,#0xa
        0x00001ad6:    980b        ..      LDR      r0,[sp,#0x2c]
        0x00001ad8:    f7fefc04    ....    BL       LCD_DrawLine_color ; 0x2e4
        0x00001adc:    9832        2.      LDR      r0,[sp,#0xc8]
        0x00001ade:    9000        ..      STR      r0,[sp,#0]
        0x00001ae0:    9806        ..      LDR      r0,[sp,#0x18]
        0x00001ae2:    1f40        @.      SUBS     r0,r0,#5
        0x00001ae4:    9003        ..      STR      r0,[sp,#0xc]
        0x00001ae6:    9807        ..      LDR      r0,[sp,#0x1c]
        0x00001ae8:    380a        .8      SUBS     r0,r0,#0xa
        0x00001aea:    9002        ..      STR      r0,[sp,#8]
        0x00001aec:    9806        ..      LDR      r0,[sp,#0x18]
        0x00001aee:    1f40        @.      SUBS     r0,r0,#5
        0x00001af0:    9001        ..      STR      r0,[sp,#4]
        0x00001af2:    4601        .F      MOV      r1,r0
        0x00001af4:    e9dd2302    ...#    LDRD     r2,r3,[sp,#8]
        0x00001af8:    9807        ..      LDR      r0,[sp,#0x1c]
        0x00001afa:    f7fefbf3    ....    BL       LCD_DrawLine_color ; 0x2e4
        0x00001afe:    9832        2.      LDR      r0,[sp,#0xc8]
        0x00001b00:    9000        ..      STR      r0,[sp,#0]
        0x00001b02:    9806        ..      LDR      r0,[sp,#0x18]
        0x00001b04:    1f40        @.      SUBS     r0,r0,#5
        0x00001b06:    9003        ..      STR      r0,[sp,#0xc]
        0x00001b08:    9807        ..      LDR      r0,[sp,#0x1c]
        0x00001b0a:    380a        .8      SUBS     r0,r0,#0xa
        0x00001b0c:    9002        ..      STR      r0,[sp,#8]
        0x00001b0e:    980b        ..      LDR      r0,[sp,#0x2c]
        0x00001b10:    380a        .8      SUBS     r0,r0,#0xa
        0x00001b12:    9001        ..      STR      r0,[sp,#4]
        0x00001b14:    990a        ..      LDR      r1,[sp,#0x28]
        0x00001b16:    310a        .1      ADDS     r1,r1,#0xa
        0x00001b18:    e9dd2302    ...#    LDRD     r2,r3,[sp,#8]
        0x00001b1c:    f7fefbe2    ....    BL       LCD_DrawLine_color ; 0x2e4
        0x00001b20:    9832        2.      LDR      r0,[sp,#0xc8]
        0x00001b22:    9000        ..      STR      r0,[sp,#0]
        0x00001b24:    980c        ..      LDR      r0,[sp,#0x30]
        0x00001b26:    380a        .8      SUBS     r0,r0,#0xa
        0x00001b28:    4603        .F      MOV      r3,r0
        0x00001b2a:    9003        ..      STR      r0,[sp,#0xc]
        0x00001b2c:    9910        ..      LDR      r1,[sp,#0x40]
        0x00001b2e:    310a        .1      ADDS     r1,r1,#0xa
        0x00001b30:    9a0d        ..      LDR      r2,[sp,#0x34]
        0x00001b32:    9811        ..      LDR      r0,[sp,#0x44]
        0x00001b34:    f7fefbd6    ....    BL       LCD_DrawLine_color ; 0x2e4
        0x00001b38:    9832        2.      LDR      r0,[sp,#0xc8]
        0x00001b3a:    9000        ..      STR      r0,[sp,#0]
        0x00001b3c:    9b10        ..      LDR      r3,[sp,#0x40]
        0x00001b3e:    330a        .3      ADDS     r3,r3,#0xa
        0x00001b40:    9a11        ..      LDR      r2,[sp,#0x44]
        0x00001b42:    320a        .2      ADDS     r2,r2,#0xa
        0x00001b44:    9910        ..      LDR      r1,[sp,#0x40]
        0x00001b46:    310a        .1      ADDS     r1,r1,#0xa
        0x00001b48:    9811        ..      LDR      r0,[sp,#0x44]
        0x00001b4a:    f7fefbcb    ....    BL       LCD_DrawLine_color ; 0x2e4
        0x00001b4e:    9832        2.      LDR      r0,[sp,#0xc8]
        0x00001b50:    9000        ..      STR      r0,[sp,#0]
        0x00001b52:    980c        ..      LDR      r0,[sp,#0x30]
        0x00001b54:    380a        .8      SUBS     r0,r0,#0xa
        0x00001b56:    9003        ..      STR      r0,[sp,#0xc]
        0x00001b58:    980c        ..      LDR      r0,[sp,#0x30]
        0x00001b5a:    380a        .8      SUBS     r0,r0,#0xa
        0x00001b5c:    9002        ..      STR      r0,[sp,#8]
        0x00001b5e:    9a0d        ..      LDR      r2,[sp,#0x34]
        0x00001b60:    320a        .2      ADDS     r2,r2,#0xa
        0x00001b62:    4601        .F      MOV      r1,r0
        0x00001b64:    9b03        ..      LDR      r3,[sp,#0xc]
        0x00001b66:    980d        ..      LDR      r0,[sp,#0x34]
        0x00001b68:    f7fefbbc    ....    BL       LCD_DrawLine_color ; 0x2e4
        0x00001b6c:    9832        2.      LDR      r0,[sp,#0xc8]
        0x00001b6e:    9000        ..      STR      r0,[sp,#0]
        0x00001b70:    980c        ..      LDR      r0,[sp,#0x30]
        0x00001b72:    380a        .8      SUBS     r0,r0,#0xa
        0x00001b74:    4603        .F      MOV      r3,r0
        0x00001b76:    9003        ..      STR      r0,[sp,#0xc]
        0x00001b78:    9a0d        ..      LDR      r2,[sp,#0x34]
        0x00001b7a:    320a        .2      ADDS     r2,r2,#0xa
        0x00001b7c:    9910        ..      LDR      r1,[sp,#0x40]
        0x00001b7e:    310a        .1      ADDS     r1,r1,#0xa
        0x00001b80:    9811        ..      LDR      r0,[sp,#0x44]
        0x00001b82:    300a        .0      ADDS     r0,r0,#0xa
        0x00001b84:    f7fefbae    ....    BL       LCD_DrawLine_color ; 0x2e4
        0x00001b88:    9832        2.      LDR      r0,[sp,#0xc8]
        0x00001b8a:    9000        ..      STR      r0,[sp,#0]
        0x00001b8c:    9804        ..      LDR      r0,[sp,#0x10]
        0x00001b8e:    1f40        @.      SUBS     r0,r0,#5
        0x00001b90:    4603        .F      MOV      r3,r0
        0x00001b92:    9003        ..      STR      r0,[sp,#0xc]
        0x00001b94:    9908        ..      LDR      r1,[sp,#0x20]
        0x00001b96:    310a        .1      ADDS     r1,r1,#0xa
        0x00001b98:    9a05        ..      LDR      r2,[sp,#0x14]
        0x00001b9a:    9809        ..      LDR      r0,[sp,#0x24]
        0x00001b9c:    f7fefba2    ....    BL       LCD_DrawLine_color ; 0x2e4
        0x00001ba0:    9832        2.      LDR      r0,[sp,#0xc8]
        0x00001ba2:    9000        ..      STR      r0,[sp,#0]
        0x00001ba4:    9b08        ..      LDR      r3,[sp,#0x20]
        0x00001ba6:    330a        .3      ADDS     r3,r3,#0xa
        0x00001ba8:    9a09        ..      LDR      r2,[sp,#0x24]
        0x00001baa:    320a        .2      ADDS     r2,r2,#0xa
        0x00001bac:    9908        ..      LDR      r1,[sp,#0x20]
        0x00001bae:    310a        .1      ADDS     r1,r1,#0xa
        0x00001bb0:    9809        ..      LDR      r0,[sp,#0x24]
        0x00001bb2:    f7fefb97    ....    BL       LCD_DrawLine_color ; 0x2e4
        0x00001bb6:    9832        2.      LDR      r0,[sp,#0xc8]
        0x00001bb8:    9000        ..      STR      r0,[sp,#0]
        0x00001bba:    9804        ..      LDR      r0,[sp,#0x10]
        0x00001bbc:    1f40        @.      SUBS     r0,r0,#5
        0x00001bbe:    9003        ..      STR      r0,[sp,#0xc]
        0x00001bc0:    9804        ..      LDR      r0,[sp,#0x10]
        0x00001bc2:    1f40        @.      SUBS     r0,r0,#5
        0x00001bc4:    9002        ..      STR      r0,[sp,#8]
        0x00001bc6:    9a05        ..      LDR      r2,[sp,#0x14]
        0x00001bc8:    320a        .2      ADDS     r2,r2,#0xa
        0x00001bca:    4601        .F      MOV      r1,r0
        0x00001bcc:    9b03        ..      LDR      r3,[sp,#0xc]
        0x00001bce:    9805        ..      LDR      r0,[sp,#0x14]
        0x00001bd0:    f7fefb88    ....    BL       LCD_DrawLine_color ; 0x2e4
        0x00001bd4:    9832        2.      LDR      r0,[sp,#0xc8]
        0x00001bd6:    9000        ..      STR      r0,[sp,#0]
        0x00001bd8:    9804        ..      LDR      r0,[sp,#0x10]
        0x00001bda:    1f40        @.      SUBS     r0,r0,#5
        0x00001bdc:    4603        .F      MOV      r3,r0
        0x00001bde:    9003        ..      STR      r0,[sp,#0xc]
        0x00001be0:    9a05        ..      LDR      r2,[sp,#0x14]
        0x00001be2:    320a        .2      ADDS     r2,r2,#0xa
        0x00001be4:    9908        ..      LDR      r1,[sp,#0x20]
        0x00001be6:    310a        .1      ADDS     r1,r1,#0xa
        0x00001be8:    9809        ..      LDR      r0,[sp,#0x24]
        0x00001bea:    300a        .0      ADDS     r0,r0,#0xa
        0x00001bec:    f7fefb7a    ..z.    BL       LCD_DrawLine_color ; 0x2e4
        0x00001bf0:    b033        3.      ADD      sp,sp,#0xcc
        0x00001bf2:    bd00        ..      POP      {pc}
    i.draw_end
    draw_end
        0x00001bf4:    b57f        ..      PUSH     {r0-r6,lr}
        0x00001bf6:    4604        .F      MOV      r4,r0
        0x00001bf8:    460d        .F      MOV      r5,r1
        0x00001bfa:    4616        .F      MOV      r6,r2
        0x00001bfc:    f24070ff    @..p    MOV      r0,#0x7ff
        0x00001c00:    f7fefa9c    ....    BL       LCD_Clear ; 0x13c
        0x00001c04:    f24070ff    @..p    MOV      r0,#0x7ff
        0x00001c08:    f44f4178    O.xA    MOV      r1,#0xf800
        0x00001c0c:    a25b        [.      ADR      r2,{pc}+0x170 ; 0x1d7c
        0x00001c0e:    2318        .#      MOVS     r3,#0x18
        0x00001c10:    e9cd3200    ...2    STRD     r3,r2,[sp,#0]
        0x00001c14:    e9cd1002    ....    STRD     r1,r0,[sp,#8]
        0x00001c18:    22c8        ."      MOVS     r2,#0xc8
        0x00001c1a:    2128        (!      MOVS     r1,#0x28
        0x00001c1c:    2046        F       MOVS     r0,#0x46
        0x00001c1e:    f7fff985    ....    BL       LCD_ShowString_color ; 0xf2c
        0x00001c22:    f24070ff    @..p    MOV      r0,#0x7ff
        0x00001c26:    f64b4140    K.@A    MOV      r1,#0xbc40
        0x00001c2a:    a257        W.      ADR      r2,{pc}+0x15e ; 0x1d88
        0x00001c2c:    2318        .#      MOVS     r3,#0x18
        0x00001c2e:    e9cd3200    ...2    STRD     r3,r2,[sp,#0]
        0x00001c32:    e9cd1002    ....    STRD     r1,r0,[sp,#8]
        0x00001c36:    22c8        ."      MOVS     r2,#0xc8
        0x00001c38:    215d        ]!      MOVS     r1,#0x5d
        0x00001c3a:    2028        (       MOVS     r0,#0x28
        0x00001c3c:    f7fff976    ..v.    BL       LCD_ShowString_color ; 0xf2c
        0x00001c40:    f24070ff    @..p    MOV      r0,#0x7ff
        0x00001c44:    f64b4140    K.@A    MOV      r1,#0xbc40
        0x00001c48:    2200        ."      MOVS     r2,#0
        0x00001c4a:    2318        .#      MOVS     r3,#0x18
        0x00001c4c:    e9cd3200    ...2    STRD     r3,r2,[sp,#0]
        0x00001c50:    e9cd1002    ....    STRD     r1,r0,[sp,#8]
        0x00001c54:    2302        .#      MOVS     r3,#2
        0x00001c56:    215d        ]!      MOVS     r1,#0x5d
        0x00001c58:    20aa        .       MOVS     r0,#0xaa
        0x00001c5a:    6822        "h      LDR      r2,[r4,#0]
        0x00001c5c:    f7fff99b    ....    BL       LCD_ShowxNum_color ; 0xf96
        0x00001c60:    f24070ff    @..p    MOV      r0,#0x7ff
        0x00001c64:    f64b4140    K.@A    MOV      r1,#0xbc40
        0x00001c68:    a24a        J.      ADR      r2,{pc}+0x12c ; 0x1d94
        0x00001c6a:    2318        .#      MOVS     r3,#0x18
        0x00001c6c:    e9cd3200    ...2    STRD     r3,r2,[sp,#0]
        0x00001c70:    e9cd1002    ....    STRD     r1,r0,[sp,#8]
        0x00001c74:    22c8        ."      MOVS     r2,#0xc8
        0x00001c76:    218f        .!      MOVS     r1,#0x8f
        0x00001c78:    2028        (       MOVS     r0,#0x28
        0x00001c7a:    f7fff957    ..W.    BL       LCD_ShowString_color ; 0xf2c
        0x00001c7e:    f24070ff    @..p    MOV      r0,#0x7ff
        0x00001c82:    f64b4140    K.@A    MOV      r1,#0xbc40
        0x00001c86:    2200        ."      MOVS     r2,#0
        0x00001c88:    2318        .#      MOVS     r3,#0x18
        0x00001c8a:    e9cd3200    ...2    STRD     r3,r2,[sp,#0]
        0x00001c8e:    e9cd1002    ....    STRD     r1,r0,[sp,#8]
        0x00001c92:    2302        .#      MOVS     r3,#2
        0x00001c94:    218f        .!      MOVS     r1,#0x8f
        0x00001c96:    20aa        .       MOVS     r0,#0xaa
        0x00001c98:    682a        *h      LDR      r2,[r5,#0]
        0x00001c9a:    f7fff97c    ..|.    BL       LCD_ShowxNum_color ; 0xf96
        0x00001c9e:    6820         h      LDR      r0,[r4,#0]
        0x00001ca0:    6829        )h      LDR      r1,[r5,#0]
        0x00001ca2:    4288        .B      CMP      r0,r1
        0x00001ca4:    dd01        ..      BLE      0x1caa ; draw_end + 182
        0x00001ca6:    6820         h      LDR      r0,[r4,#0]
        0x00001ca8:    e000        ..      B        0x1cac ; draw_end + 184
        0x00001caa:    6828        (h      LDR      r0,[r5,#0]
        0x00001cac:    6831        1h      LDR      r1,[r6,#0]
        0x00001cae:    4288        .B      CMP      r0,r1
        0x00001cb0:    da01        ..      BGE      0x1cb6 ; draw_end + 194
        0x00001cb2:    6830        0h      LDR      r0,[r6,#0]
        0x00001cb4:    e006        ..      B        0x1cc4 ; draw_end + 208
        0x00001cb6:    6820         h      LDR      r0,[r4,#0]
        0x00001cb8:    6829        )h      LDR      r1,[r5,#0]
        0x00001cba:    4288        .B      CMP      r0,r1
        0x00001cbc:    dd01        ..      BLE      0x1cc2 ; draw_end + 206
        0x00001cbe:    6820         h      LDR      r0,[r4,#0]
        0x00001cc0:    e000        ..      B        0x1cc4 ; draw_end + 208
        0x00001cc2:    6828        (h      LDR      r0,[r5,#0]
        0x00001cc4:    6030        0`      STR      r0,[r6,#0]
        0x00001cc6:    6820         h      LDR      r0,[r4,#0]
        0x00001cc8:    6028        (`      STR      r0,[r5,#0]
        0x00001cca:    2000        .       MOVS     r0,#0
        0x00001ccc:    6020         `      STR      r0,[r4,#0]
        0x00001cce:    f24070ff    @..p    MOV      r0,#0x7ff
        0x00001cd2:    f64f011f    O...    MOV      r1,#0xf81f
        0x00001cd6:    a232        2.      ADR      r2,{pc}+0xca ; 0x1da0
        0x00001cd8:    2318        .#      MOVS     r3,#0x18
        0x00001cda:    e9cd3200    ...2    STRD     r3,r2,[sp,#0]
        0x00001cde:    e9cd1002    ....    STRD     r1,r0,[sp,#8]
        0x00001ce2:    22c8        ."      MOVS     r2,#0xc8
        0x00001ce4:    21cb        .!      MOVS     r1,#0xcb
        0x00001ce6:    2028        (       MOVS     r0,#0x28
        0x00001ce8:    f7fff920    .. .    BL       LCD_ShowString_color ; 0xf2c
        0x00001cec:    f24070ff    @..p    MOV      r0,#0x7ff
        0x00001cf0:    f64f011f    O...    MOV      r1,#0xf81f
        0x00001cf4:    2200        ."      MOVS     r2,#0
        0x00001cf6:    2318        .#      MOVS     r3,#0x18
        0x00001cf8:    e9cd3200    ...2    STRD     r3,r2,[sp,#0]
        0x00001cfc:    e9cd1002    ....    STRD     r1,r0,[sp,#8]
        0x00001d00:    2302        .#      MOVS     r3,#2
        0x00001d02:    21cb        .!      MOVS     r1,#0xcb
        0x00001d04:    20aa        .       MOVS     r0,#0xaa
        0x00001d06:    6832        2h      LDR      r2,[r6,#0]
        0x00001d08:    f7fff945    ..E.    BL       LCD_ShowxNum_color ; 0xf96
        0x00001d0c:    f24070ff    @..p    MOV      r0,#0x7ff
        0x00001d10:    2100        .!      MOVS     r1,#0
        0x00001d12:    a226        &.      ADR      r2,{pc}+0x9a ; 0x1dac
        0x00001d14:    230c        .#      MOVS     r3,#0xc
        0x00001d16:    e9cd3200    ...2    STRD     r3,r2,[sp,#0]
        0x00001d1a:    e9cd1002    ....    STRD     r1,r0,[sp,#8]
        0x00001d1e:    22c8        ."      MOVS     r2,#0xc8
        0x00001d20:    f44f7191    O..q    MOV      r1,#0x122
        0x00001d24:    2032        2       MOVS     r0,#0x32
        0x00001d26:    f7fff901    ....    BL       LCD_ShowString_color ; 0xf2c
        0x00001d2a:    2200        ."      MOVS     r2,#0
        0x00001d2c:    f44f7182    O..q    MOV      r1,#0x104
        0x00001d30:    205a        Z       MOVS     r0,#0x5a
        0x00001d32:    f000f937    ..7.    BL       draw_my_plane ; 0x1fa4
        0x00001d36:    2200        ."      MOVS     r2,#0
        0x00001d38:    f44f7182    O..q    MOV      r1,#0x104
        0x00001d3c:    2078        x       MOVS     r0,#0x78
        0x00001d3e:    f000f931    ..1.    BL       draw_my_plane ; 0x1fa4
        0x00001d42:    2200        ."      MOVS     r2,#0
        0x00001d44:    f44f7182    O..q    MOV      r1,#0x104
        0x00001d48:    2096        .       MOVS     r0,#0x96
        0x00001d4a:    f000f92b    ..+.    BL       draw_my_plane ; 0x1fa4
        0x00001d4e:    f44f7196    O..q    MOV      r1,#0x12c
        0x00001d52:    20c8        .       MOVS     r0,#0xc8
        0x00001d54:    f000face    ....    BL       draw_star ; 0x22f4
        0x00001d58:    2182        .!      MOVS     r1,#0x82
        0x00001d5a:    2014        .       MOVS     r0,#0x14
        0x00001d5c:    f000faca    ....    BL       draw_star ; 0x22f4
        0x00001d60:    21e6        .!      MOVS     r1,#0xe6
        0x00001d62:    2032        2       MOVS     r0,#0x32
        0x00001d64:    f000fac6    ....    BL       draw_star ; 0x22f4
        0x00001d68:    2178        x!      MOVS     r1,#0x78
        0x00001d6a:    2096        .       MOVS     r0,#0x96
        0x00001d6c:    f000fac2    ....    BL       draw_star ; 0x22f4
        0x00001d70:    211e        .!      MOVS     r1,#0x1e
        0x00001d72:    2050        P       MOVS     r0,#0x50
        0x00001d74:    f000fabe    ....    BL       draw_star ; 0x22f4
        0x00001d78:    bd7f        ..      POP      {r0-r6,pc}
    $d
        0x00001d7a:    0000        ..      DCW    0
        0x00001d7c:    454d4147    GAME    DCD    1162690887
        0x00001d80:    45564f20     OVE    DCD    1163284256
        0x00001d84:    00000052    R...    DCD    82
        0x00001d88:    73696854    This    DCD    1936287828
        0x00001d8c:    4f435320     SCO    DCD    1329812256
        0x00001d90:    003a4552    RE:.    DCD    3818834
        0x00001d94:    7473614c    Last    DCD    1953718604
        0x00001d98:    4f435320     SCO    DCD    1329812256
        0x00001d9c:    003a4552    RE:.    DCD    3818834
        0x00001da0:    74736542    Best    DCD    1953719618
        0x00001da4:    4f435320     SCO    DCD    1329812256
        0x00001da8:    003a4552    RE:.    DCD    3818834
        0x00001dac:    73657250    Pres    DCD    1936028240
        0x00001db0:    454b2073    s KE    DCD    1162551411
        0x00001db4:    74203059    Y0 t    DCD    1948266585
        0x00001db8:    6f63206f    o co    DCD    1868767343
        0x00001dbc:    6e69746e    ntin    DCD    1852404846
        0x00001dc0:    00006575    ue..    DCD    25973
    $t
    i.draw_enemy_bullet
    draw_enemy_bullet
        0x00001dc4:    b570        p.      PUSH     {r4-r6,lr}
        0x00001dc6:    4604        .F      MOV      r4,r0
        0x00001dc8:    460d        .F      MOV      r5,r1
        0x00001dca:    4616        .F      MOV      r6,r2
        0x00001dcc:    1e69        i.      SUBS     r1,r5,#1
        0x00001dce:    1e60        `.      SUBS     r0,r4,#1
        0x00001dd0:    4632        2F      MOV      r2,r6
        0x00001dd2:    f7fefaf7    ....    BL       LCD_Fast_DrawPoint ; 0x3c4
        0x00001dd6:    1e69        i.      SUBS     r1,r5,#1
        0x00001dd8:    4632        2F      MOV      r2,r6
        0x00001dda:    4620         F      MOV      r0,r4
        0x00001ddc:    f7fefaf2    ....    BL       LCD_Fast_DrawPoint ; 0x3c4
        0x00001de0:    1e69        i.      SUBS     r1,r5,#1
        0x00001de2:    4632        2F      MOV      r2,r6
        0x00001de4:    1c60        `.      ADDS     r0,r4,#1
        0x00001de6:    f7fefaed    ....    BL       LCD_Fast_DrawPoint ; 0x3c4
        0x00001dea:    1e60        `.      SUBS     r0,r4,#1
        0x00001dec:    4632        2F      MOV      r2,r6
        0x00001dee:    4629        )F      MOV      r1,r5
        0x00001df0:    f7fefae8    ....    BL       LCD_Fast_DrawPoint ; 0x3c4
        0x00001df4:    4632        2F      MOV      r2,r6
        0x00001df6:    4629        )F      MOV      r1,r5
        0x00001df8:    4620         F      MOV      r0,r4
        0x00001dfa:    f7fefae3    ....    BL       LCD_Fast_DrawPoint ; 0x3c4
        0x00001dfe:    4632        2F      MOV      r2,r6
        0x00001e00:    4629        )F      MOV      r1,r5
        0x00001e02:    1c60        `.      ADDS     r0,r4,#1
        0x00001e04:    f7fefade    ....    BL       LCD_Fast_DrawPoint ; 0x3c4
        0x00001e08:    4632        2F      MOV      r2,r6
        0x00001e0a:    1c69        i.      ADDS     r1,r5,#1
        0x00001e0c:    4620         F      MOV      r0,r4
        0x00001e0e:    f7fefad9    ....    BL       LCD_Fast_DrawPoint ; 0x3c4
        0x00001e12:    bd70        p.      POP      {r4-r6,pc}
    i.draw_enemy_plane
    draw_enemy_plane
        0x00001e14:    b57c        |.      PUSH     {r2-r6,lr}
        0x00001e16:    4606        .F      MOV      r6,r0
        0x00001e18:    460c        .F      MOV      r4,r1
        0x00001e1a:    4615        .F      MOV      r5,r2
        0x00001e1c:    2304        .#      MOVS     r3,#4
        0x00001e1e:    2206        ."      MOVS     r2,#6
        0x00001e20:    f104010a    ....    ADD      r1,r4,#0xa
        0x00001e24:    4630        0F      MOV      r0,r6
        0x00001e26:    9500        ..      STR      r5,[sp,#0]
        0x00001e28:    f000f97b    ..{.    BL       draw_reversed_equal_triangle ; 0x2122
        0x00001e2c:    f1a4010a    ....    SUB      r1,r4,#0xa
        0x00001e30:    1eb0        ..      SUBS     r0,r6,#2
        0x00001e32:    2314        .#      MOVS     r3,#0x14
        0x00001e34:    2204        ."      MOVS     r2,#4
        0x00001e36:    9500        ..      STR      r5,[sp,#0]
        0x00001e38:    f000f94a    ..J.    BL       draw_rectangle ; 0x20d0
        0x00001e3c:    1ea1        ..      SUBS     r1,r4,#2
        0x00001e3e:    2309        .#      MOVS     r3,#9
        0x00001e40:    220c        ."      MOVS     r2,#0xc
        0x00001e42:    1cb0        ..      ADDS     r0,r6,#2
        0x00001e44:    9500        ..      STR      r5,[sp,#0]
        0x00001e46:    f000f99a    ....    BL       draw_reversed_left_triangle ; 0x217e
        0x00001e4a:    1ea1        ..      SUBS     r1,r4,#2
        0x00001e4c:    1eb0        ..      SUBS     r0,r6,#2
        0x00001e4e:    2309        .#      MOVS     r3,#9
        0x00001e50:    220c        ."      MOVS     r2,#0xc
        0x00001e52:    9500        ..      STR      r5,[sp,#0]
        0x00001e54:    f000f9bb    ....    BL       draw_reversed_right_triangle ; 0x21ce
        0x00001e58:    2004        .       MOVS     r0,#4
        0x00001e5a:    f1a4010a    ....    SUB      r1,r4,#0xa
        0x00001e5e:    230e        .#      MOVS     r3,#0xe
        0x00001e60:    2206        ."      MOVS     r2,#6
        0x00001e62:    e9cd0500    ....    STRD     r0,r5,[sp,#0]
        0x00001e66:    4630        0F      MOV      r0,r6
        0x00001e68:    f000f9d9    ....    BL       draw_reversed_trapezoid ; 0x221e
        0x00001e6c:    bd7c        |.      POP      {r2-r6,pc}
    i.draw_equal_triangle
    draw_equal_triangle
        0x00001e6e:    e92d5fff    -.._    PUSH     {r0-r12,lr}
        0x00001e72:    4605        .F      MOV      r5,r0
        0x00001e74:    460e        .F      MOV      r6,r1
        0x00001e76:    4614        .F      MOV      r4,r2
        0x00001e78:    4698        .F      MOV      r8,r3
        0x00001e7a:    f8dd9038    ..8.    LDR      r9,[sp,#0x38]
        0x00001e7e:    462f        /F      MOV      r7,r5
        0x00001e80:    eba60b08    ....    SUB      r11,r6,r8
        0x00001e84:    4620         F      MOV      r0,r4
        0x00001e86:    eb0471d0    ...q    ADD      r1,r4,r0,LSR #31
        0x00001e8a:    eba50161    ..a.    SUB      r1,r5,r1,ASR #1
        0x00001e8e:    9103        ..      STR      r1,[sp,#0xc]
        0x00001e90:    46b2        .F      MOV      r10,r6
        0x00001e92:    eb0471d0    ...q    ADD      r1,r4,r0,LSR #31
        0x00001e96:    eb050161    ..a.    ADD      r1,r5,r1,ASR #1
        0x00001e9a:    9102        ..      STR      r1,[sp,#8]
        0x00001e9c:    9601        ..      STR      r6,[sp,#4]
        0x00001e9e:    4653        SF      MOV      r3,r10
        0x00001ea0:    f8cd9000    ....    STR      r9,[sp,#0]
        0x00001ea4:    4659        YF      MOV      r1,r11
        0x00001ea6:    4638        8F      MOV      r0,r7
        0x00001ea8:    9a03        ..      LDR      r2,[sp,#0xc]
        0x00001eaa:    f7fefa1b    ....    BL       LCD_DrawLine_color ; 0x2e4
        0x00001eae:    f8cd9000    ....    STR      r9,[sp,#0]
        0x00001eb2:    4659        YF      MOV      r1,r11
        0x00001eb4:    4638        8F      MOV      r0,r7
        0x00001eb6:    e9dd3201    ...2    LDRD     r3,r2,[sp,#4]
        0x00001eba:    f7fefa13    ....    BL       LCD_DrawLine_color ; 0x2e4
        0x00001ebe:    e8bd9fff    ....    POP      {r0-r12,pc}
    i.draw_heart
    draw_heart
        0x00001ec2:    b5f8        ..      PUSH     {r3-r7,lr}
        0x00001ec4:    4604        .F      MOV      r4,r0
        0x00001ec6:    460d        .F      MOV      r5,r1
        0x00001ec8:    4616        .F      MOV      r6,r2
        0x00001eca:    1f69        i.      SUBS     r1,r5,#5
        0x00001ecc:    1f60        `.      SUBS     r0,r4,#5
        0x00001ece:    1d6b        k.      ADDS     r3,r5,#5
        0x00001ed0:    1d62        b.      ADDS     r2,r4,#5
        0x00001ed2:    9600        ..      STR      r6,[sp,#0]
        0x00001ed4:    f7fefa06    ....    BL       LCD_DrawLine_color ; 0x2e4
        0x00001ed8:    1f6b        k.      SUBS     r3,r5,#5
        0x00001eda:    1f60        `.      SUBS     r0,r4,#5
        0x00001edc:    1d62        b.      ADDS     r2,r4,#5
        0x00001ede:    1d69        i.      ADDS     r1,r5,#5
        0x00001ee0:    9600        ..      STR      r6,[sp,#0]
        0x00001ee2:    f7fef9ff    ....    BL       LCD_DrawLine_color ; 0x2e4
        0x00001ee6:    1f60        `.      SUBS     r0,r4,#5
        0x00001ee8:    462b        +F      MOV      r3,r5
        0x00001eea:    1d62        b.      ADDS     r2,r4,#5
        0x00001eec:    4629        )F      MOV      r1,r5
        0x00001eee:    9600        ..      STR      r6,[sp,#0]
        0x00001ef0:    f7fef9f8    ....    BL       LCD_DrawLine_color ; 0x2e4
        0x00001ef4:    1f6b        k.      SUBS     r3,r5,#5
        0x00001ef6:    4622        "F      MOV      r2,r4
        0x00001ef8:    1d69        i.      ADDS     r1,r5,#5
        0x00001efa:    4620         F      MOV      r0,r4
        0x00001efc:    9600        ..      STR      r6,[sp,#0]
        0x00001efe:    f7fef9f1    ....    BL       LCD_DrawLine_color ; 0x2e4
        0x00001f02:    bdf8        ..      POP      {r3-r7,pc}
    i.draw_left_triangle
    draw_left_triangle
        0x00001f04:    e92d5fff    -.._    PUSH     {r0-r12,lr}
        0x00001f08:    4604        .F      MOV      r4,r0
        0x00001f0a:    460d        .F      MOV      r5,r1
        0x00001f0c:    4692        .F      MOV      r10,r2
        0x00001f0e:    469b        .F      MOV      r11,r3
        0x00001f10:    9e0e        ..      LDR      r6,[sp,#0x38]
        0x00001f12:    4627        'F      MOV      r7,r4
        0x00001f14:    46a8        .F      MOV      r8,r5
        0x00001f16:    eba4000a    ....    SUB      r0,r4,r10
        0x00001f1a:    9003        ..      STR      r0,[sp,#0xc]
        0x00001f1c:    46a9        .F      MOV      r9,r5
        0x00001f1e:    9402        ..      STR      r4,[sp,#8]
        0x00001f20:    eba5000b    ....    SUB      r0,r5,r11
        0x00001f24:    9001        ..      STR      r0,[sp,#4]
        0x00001f26:    464b        KF      MOV      r3,r9
        0x00001f28:    9600        ..      STR      r6,[sp,#0]
        0x00001f2a:    4641        AF      MOV      r1,r8
        0x00001f2c:    4638        8F      MOV      r0,r7
        0x00001f2e:    9a03        ..      LDR      r2,[sp,#0xc]
        0x00001f30:    f7fef9d8    ....    BL       LCD_DrawLine_color ; 0x2e4
        0x00001f34:    9600        ..      STR      r6,[sp,#0]
        0x00001f36:    4641        AF      MOV      r1,r8
        0x00001f38:    4638        8F      MOV      r0,r7
        0x00001f3a:    e9dd3201    ...2    LDRD     r3,r2,[sp,#4]
        0x00001f3e:    f7fef9d1    ....    BL       LCD_DrawLine_color ; 0x2e4
        0x00001f42:    9600        ..      STR      r6,[sp,#0]
        0x00001f44:    4649        IF      MOV      r1,r9
        0x00001f46:    e9dd3201    ...2    LDRD     r3,r2,[sp,#4]
        0x00001f4a:    9803        ..      LDR      r0,[sp,#0xc]
        0x00001f4c:    f7fef9ca    ....    BL       LCD_DrawLine_color ; 0x2e4
        0x00001f50:    e8bd9fff    ....    POP      {r0-r12,pc}
    i.draw_my_bullet
    draw_my_bullet
        0x00001f54:    b570        p.      PUSH     {r4-r6,lr}
        0x00001f56:    4604        .F      MOV      r4,r0
        0x00001f58:    460d        .F      MOV      r5,r1
        0x00001f5a:    4616        .F      MOV      r6,r2
        0x00001f5c:    1e69        i.      SUBS     r1,r5,#1
        0x00001f5e:    4632        2F      MOV      r2,r6
        0x00001f60:    4620         F      MOV      r0,r4
        0x00001f62:    f7fefa2f    ../.    BL       LCD_Fast_DrawPoint ; 0x3c4
        0x00001f66:    1e60        `.      SUBS     r0,r4,#1
        0x00001f68:    4632        2F      MOV      r2,r6
        0x00001f6a:    4629        )F      MOV      r1,r5
        0x00001f6c:    f7fefa2a    ..*.    BL       LCD_Fast_DrawPoint ; 0x3c4
        0x00001f70:    4632        2F      MOV      r2,r6
        0x00001f72:    4629        )F      MOV      r1,r5
        0x00001f74:    4620         F      MOV      r0,r4
        0x00001f76:    f7fefa25    ..%.    BL       LCD_Fast_DrawPoint ; 0x3c4
        0x00001f7a:    4632        2F      MOV      r2,r6
        0x00001f7c:    4629        )F      MOV      r1,r5
        0x00001f7e:    1c60        `.      ADDS     r0,r4,#1
        0x00001f80:    f7fefa20    .. .    BL       LCD_Fast_DrawPoint ; 0x3c4
        0x00001f84:    1e60        `.      SUBS     r0,r4,#1
        0x00001f86:    4632        2F      MOV      r2,r6
        0x00001f88:    1c69        i.      ADDS     r1,r5,#1
        0x00001f8a:    f7fefa1b    ....    BL       LCD_Fast_DrawPoint ; 0x3c4
        0x00001f8e:    4632        2F      MOV      r2,r6
        0x00001f90:    1c69        i.      ADDS     r1,r5,#1
        0x00001f92:    4620         F      MOV      r0,r4
        0x00001f94:    f7fefa16    ....    BL       LCD_Fast_DrawPoint ; 0x3c4
        0x00001f98:    4632        2F      MOV      r2,r6
        0x00001f9a:    1c69        i.      ADDS     r1,r5,#1
        0x00001f9c:    1c60        `.      ADDS     r0,r4,#1
        0x00001f9e:    f7fefa11    ....    BL       LCD_Fast_DrawPoint ; 0x3c4
        0x00001fa2:    bd70        p.      POP      {r4-r6,pc}
    i.draw_my_plane
    draw_my_plane
        0x00001fa4:    b57c        |.      PUSH     {r2-r6,lr}
        0x00001fa6:    4606        .F      MOV      r6,r0
        0x00001fa8:    460c        .F      MOV      r4,r1
        0x00001faa:    4615        .F      MOV      r5,r2
        0x00001fac:    f1a4010a    ....    SUB      r1,r4,#0xa
        0x00001fb0:    2304        .#      MOVS     r3,#4
        0x00001fb2:    2206        ."      MOVS     r2,#6
        0x00001fb4:    4630        0F      MOV      r0,r6
        0x00001fb6:    9500        ..      STR      r5,[sp,#0]
        0x00001fb8:    f7ffff59    ..Y.    BL       draw_equal_triangle ; 0x1e6e
        0x00001fbc:    f1a4010a    ....    SUB      r1,r4,#0xa
        0x00001fc0:    1eb0        ..      SUBS     r0,r6,#2
        0x00001fc2:    2314        .#      MOVS     r3,#0x14
        0x00001fc4:    2204        ."      MOVS     r2,#4
        0x00001fc6:    9500        ..      STR      r5,[sp,#0]
        0x00001fc8:    f000f882    ....    BL       draw_rectangle ; 0x20d0
        0x00001fcc:    1eb0        ..      SUBS     r0,r6,#2
        0x00001fce:    2309        .#      MOVS     r3,#9
        0x00001fd0:    220c        ."      MOVS     r2,#0xc
        0x00001fd2:    1ca1        ..      ADDS     r1,r4,#2
        0x00001fd4:    9500        ..      STR      r5,[sp,#0]
        0x00001fd6:    f7ffff95    ....    BL       draw_left_triangle ; 0x1f04
        0x00001fda:    2309        .#      MOVS     r3,#9
        0x00001fdc:    220c        ."      MOVS     r2,#0xc
        0x00001fde:    1ca1        ..      ADDS     r1,r4,#2
        0x00001fe0:    1cb0        ..      ADDS     r0,r6,#2
        0x00001fe2:    9500        ..      STR      r5,[sp,#0]
        0x00001fe4:    f000f95e    ..^.    BL       draw_right_triangle ; 0x22a4
        0x00001fe8:    2004        .       MOVS     r0,#4
        0x00001fea:    230e        .#      MOVS     r3,#0xe
        0x00001fec:    2206        ."      MOVS     r2,#6
        0x00001fee:    f104010a    ....    ADD      r1,r4,#0xa
        0x00001ff2:    e9cd0500    ....    STRD     r0,r5,[sp,#0]
        0x00001ff6:    4630        0F      MOV      r0,r6
        0x00001ff8:    f000f9de    ....    BL       draw_trapezoid ; 0x23b8
        0x00001ffc:    bd7c        |.      POP      {r2-r6,pc}
    i.draw_play_all
    draw_play_all
        0x00001ffe:    e92d5ff0    -.._    PUSH     {r4-r12,lr}
        0x00002002:    4606        .F      MOV      r6,r0
        0x00002004:    460f        .F      MOV      r7,r1
        0x00002006:    4690        .F      MOV      r8,r2
        0x00002008:    461c        .F      MOV      r4,r3
        0x0000200a:    e9ddab0c    ....    LDRD     r10,r11,[sp,#0x30]
        0x0000200e:    e9dd950a    ....    LDRD     r9,r5,[sp,#0x28]
        0x00002012:    4642        BF      MOV      r2,r8
        0x00002014:    4639        9F      MOV      r1,r7
        0x00002016:    4630        0F      MOV      r0,r6
        0x00002018:    f000f818    ....    BL       draw_play_title ; 0x204c
        0x0000201c:    221f        ."      MOVS     r2,#0x1f
        0x0000201e:    e9d40100    ....    LDRD     r0,r1,[r4,#0]
        0x00002022:    f7ffffbf    ....    BL       draw_my_plane ; 0x1fa4
        0x00002026:    4648        HF      MOV      r0,r9
        0x00002028:    f7fffbf5    ....    BL       draw_all_my_buttles ; 0x1816
        0x0000202c:    6828        (h      LDR      r0,[r5,#0]
        0x0000202e:    b128        (.      CBZ      r0,0x203c ; draw_play_all + 62
        0x00002030:    f64f021f    O...    MOV      r2,#0xf81f
        0x00002034:    e9d50100    ....    LDRD     r0,r1,[r5,#0]
        0x00002038:    f7fffc18    ....    BL       draw_boss ; 0x186c
        0x0000203c:    4650        PF      MOV      r0,r10
        0x0000203e:    f7fffbd6    ....    BL       draw_all_enemy_planes ; 0x17ee
        0x00002042:    4658        XF      MOV      r0,r11
        0x00002044:    f7fffbbf    ....    BL       draw_all_enemy_buttles ; 0x17c6
        0x00002048:    e8bd9ff0    ....    POP      {r4-r12,pc}
    i.draw_play_title
    draw_play_title
        0x0000204c:    e92d41ff    -..A    PUSH     {r0-r8,lr}
        0x00002050:    4605        .F      MOV      r5,r0
        0x00002052:    460e        .F      MOV      r6,r1
        0x00002054:    4617        .F      MOV      r7,r2
        0x00002056:    2400        .$      MOVS     r4,#0
        0x00002058:    f04f08c8    O...    MOV      r8,#0xc8
        0x0000205c:    f64f70ff    O..p    MOV      r0,#0xffff
        0x00002060:    211f        .!      MOVS     r1,#0x1f
        0x00002062:    2200        ."      MOVS     r2,#0
        0x00002064:    2310        .#      MOVS     r3,#0x10
        0x00002066:    e9cd3200    ...2    STRD     r3,r2,[sp,#0]
        0x0000206a:    e9cd1002    ....    STRD     r1,r0,[sp,#8]
        0x0000206e:    2302        .#      MOVS     r3,#2
        0x00002070:    462a        *F      MOV      r2,r5
        0x00002072:    2108        .!      MOVS     r1,#8
        0x00002074:    2037        7       MOVS     r0,#0x37
        0x00002076:    f7feff8e    ....    BL       LCD_ShowxNum_color ; 0xf96
        0x0000207a:    f64f70ff    O..p    MOV      r0,#0xffff
        0x0000207e:    f64f4107    O..A    MOV      r1,#0xfc07
        0x00002082:    2200        ."      MOVS     r2,#0
        0x00002084:    2310        .#      MOVS     r3,#0x10
        0x00002086:    e9cd3200    ...2    STRD     r3,r2,[sp,#0]
        0x0000208a:    e9cd1002    ....    STRD     r1,r0,[sp,#8]
        0x0000208e:    2301        .#      MOVS     r3,#1
        0x00002090:    4632        2F      MOV      r2,r6
        0x00002092:    2108        .!      MOVS     r1,#8
        0x00002094:    2087        .       MOVS     r0,#0x87
        0x00002096:    f7feff7e    ..~.    BL       LCD_ShowxNum_color ; 0xf96
        0x0000209a:    f64f70ff    O..p    MOV      r0,#0xffff
        0x0000209e:    2314        .#      MOVS     r3,#0x14
        0x000020a0:    22e7        ."      MOVS     r2,#0xe7
        0x000020a2:    210a        .!      MOVS     r1,#0xa
        0x000020a4:    9000        ..      STR      r0,[sp,#0]
        0x000020a6:    20c3        .       MOVS     r0,#0xc3
        0x000020a8:    f7fef9ea    ....    BL       LCD_Fill ; 0x480
        0x000020ac:    bf00        ..      NOP      
        0x000020ae:    e00b        ..      B        0x20c8 ; draw_play_title + 124
        0x000020b0:    eb040184    ....    ADD      r1,r4,r4,LSL #2
        0x000020b4:    eb0101c4    ....    ADD      r1,r1,r4,LSL #3
        0x000020b8:    eb010008    ....    ADD      r0,r1,r8
        0x000020bc:    f44f4278    O.xB    MOV      r2,#0xf800
        0x000020c0:    210f        .!      MOVS     r1,#0xf
        0x000020c2:    f7fffefe    ....    BL       draw_heart ; 0x1ec2
        0x000020c6:    1c64        d.      ADDS     r4,r4,#1
        0x000020c8:    42bc        .B      CMP      r4,r7
        0x000020ca:    dbf1        ..      BLT      0x20b0 ; draw_play_title + 100
        0x000020cc:    e8bd81ff    ....    POP      {r0-r8,pc}
    i.draw_rectangle
    draw_rectangle
        0x000020d0:    e92d4ff0    -..O    PUSH     {r4-r11,lr}
        0x000020d4:    b087        ..      SUB      sp,sp,#0x1c
        0x000020d6:    4604        .F      MOV      r4,r0
        0x000020d8:    460d        .F      MOV      r5,r1
        0x000020da:    4690        .F      MOV      r8,r2
        0x000020dc:    4699        .F      MOV      r9,r3
        0x000020de:    f8dda040    ..@.    LDR      r10,[sp,#0x40]
        0x000020e2:    4626        &F      MOV      r6,r4
        0x000020e4:    462f        /F      MOV      r7,r5
        0x000020e6:    eb040b08    ....    ADD      r11,r4,r8
        0x000020ea:    9506        ..      STR      r5,[sp,#0x18]
        0x000020ec:    9605        ..      STR      r6,[sp,#0x14]
        0x000020ee:    eb050009    ....    ADD      r0,r5,r9
        0x000020f2:    9004        ..      STR      r0,[sp,#0x10]
        0x000020f4:    f8cdb00c    ....    STR      r11,[sp,#0xc]
        0x000020f8:    9804        ..      LDR      r0,[sp,#0x10]
        0x000020fa:    9002        ..      STR      r0,[sp,#8]
        0x000020fc:    f8cda000    ....    STR      r10,[sp,#0]
        0x00002100:    4639        9F      MOV      r1,r7
        0x00002102:    4630        0F      MOV      r0,r6
        0x00002104:    e9dd3204    ...2    LDRD     r3,r2,[sp,#0x10]
        0x00002108:    f7fef8ec    ....    BL       LCD_DrawLine_color ; 0x2e4
        0x0000210c:    f8cda000    ....    STR      r10,[sp,#0]
        0x00002110:    465a        ZF      MOV      r2,r11
        0x00002112:    9b06        ..      LDR      r3,[sp,#0x18]
        0x00002114:    e9dd1002    ....    LDRD     r1,r0,[sp,#8]
        0x00002118:    f7fef8e4    ....    BL       LCD_DrawLine_color ; 0x2e4
        0x0000211c:    b007        ..      ADD      sp,sp,#0x1c
        0x0000211e:    e8bd8ff0    ....    POP      {r4-r11,pc}
    i.draw_reversed_equal_triangle
    draw_reversed_equal_triangle
        0x00002122:    e92d5fff    -.._    PUSH     {r0-r12,lr}
        0x00002126:    4605        .F      MOV      r5,r0
        0x00002128:    460e        .F      MOV      r6,r1
        0x0000212a:    4614        .F      MOV      r4,r2
        0x0000212c:    469a        .F      MOV      r10,r3
        0x0000212e:    9f0e        ..      LDR      r7,[sp,#0x38]
        0x00002130:    4620         F      MOV      r0,r4
        0x00002132:    eb0471d0    ...q    ADD      r1,r4,r0,LSR #31
        0x00002136:    eba50161    ..a.    SUB      r1,r5,r1,ASR #1
        0x0000213a:    9103        ..      STR      r1,[sp,#0xc]
        0x0000213c:    46b0        .F      MOV      r8,r6
        0x0000213e:    eb0471d0    ...q    ADD      r1,r4,r0,LSR #31
        0x00002142:    eb050b61    ..a.    ADD      r11,r5,r1,ASR #1
        0x00002146:    46b1        .F      MOV      r9,r6
        0x00002148:    9502        ..      STR      r5,[sp,#8]
        0x0000214a:    eb06000a    ....    ADD      r0,r6,r10
        0x0000214e:    9001        ..      STR      r0,[sp,#4]
        0x00002150:    464b        KF      MOV      r3,r9
        0x00002152:    465a        ZF      MOV      r2,r11
        0x00002154:    4641        AF      MOV      r1,r8
        0x00002156:    9700        ..      STR      r7,[sp,#0]
        0x00002158:    9803        ..      LDR      r0,[sp,#0xc]
        0x0000215a:    f7fef8c3    ....    BL       LCD_DrawLine_color ; 0x2e4
        0x0000215e:    9700        ..      STR      r7,[sp,#0]
        0x00002160:    4641        AF      MOV      r1,r8
        0x00002162:    e9dd3201    ...2    LDRD     r3,r2,[sp,#4]
        0x00002166:    9803        ..      LDR      r0,[sp,#0xc]
        0x00002168:    f7fef8bc    ....    BL       LCD_DrawLine_color ; 0x2e4
        0x0000216c:    9700        ..      STR      r7,[sp,#0]
        0x0000216e:    4649        IF      MOV      r1,r9
        0x00002170:    4658        XF      MOV      r0,r11
        0x00002172:    e9dd3201    ...2    LDRD     r3,r2,[sp,#4]
        0x00002176:    f7fef8b5    ....    BL       LCD_DrawLine_color ; 0x2e4
        0x0000217a:    e8bd9fff    ....    POP      {r0-r12,pc}
    i.draw_reversed_left_triangle
    draw_reversed_left_triangle
        0x0000217e:    e92d5fff    -.._    PUSH     {r0-r12,lr}
        0x00002182:    4604        .F      MOV      r4,r0
        0x00002184:    460d        .F      MOV      r5,r1
        0x00002186:    4692        .F      MOV      r10,r2
        0x00002188:    469b        .F      MOV      r11,r3
        0x0000218a:    9e0e        ..      LDR      r6,[sp,#0x38]
        0x0000218c:    4627        'F      MOV      r7,r4
        0x0000218e:    46a8        .F      MOV      r8,r5
        0x00002190:    eb04000a    ....    ADD      r0,r4,r10
        0x00002194:    9003        ..      STR      r0,[sp,#0xc]
        0x00002196:    46a9        .F      MOV      r9,r5
        0x00002198:    9402        ..      STR      r4,[sp,#8]
        0x0000219a:    eb05000b    ....    ADD      r0,r5,r11
        0x0000219e:    9001        ..      STR      r0,[sp,#4]
        0x000021a0:    464b        KF      MOV      r3,r9
        0x000021a2:    9600        ..      STR      r6,[sp,#0]
        0x000021a4:    4641        AF      MOV      r1,r8
        0x000021a6:    4638        8F      MOV      r0,r7
        0x000021a8:    9a03        ..      LDR      r2,[sp,#0xc]
        0x000021aa:    f7fef89b    ....    BL       LCD_DrawLine_color ; 0x2e4
        0x000021ae:    9600        ..      STR      r6,[sp,#0]
        0x000021b0:    4641        AF      MOV      r1,r8
        0x000021b2:    4638        8F      MOV      r0,r7
        0x000021b4:    e9dd3201    ...2    LDRD     r3,r2,[sp,#4]
        0x000021b8:    f7fef894    ....    BL       LCD_DrawLine_color ; 0x2e4
        0x000021bc:    9600        ..      STR      r6,[sp,#0]
        0x000021be:    4649        IF      MOV      r1,r9
        0x000021c0:    e9dd3201    ...2    LDRD     r3,r2,[sp,#4]
        0x000021c4:    9803        ..      LDR      r0,[sp,#0xc]
        0x000021c6:    f7fef88d    ....    BL       LCD_DrawLine_color ; 0x2e4
        0x000021ca:    e8bd9fff    ....    POP      {r0-r12,pc}
    i.draw_reversed_right_triangle
    draw_reversed_right_triangle
        0x000021ce:    e92d5fff    -.._    PUSH     {r0-r12,lr}
        0x000021d2:    4604        .F      MOV      r4,r0
        0x000021d4:    460d        .F      MOV      r5,r1
        0x000021d6:    4692        .F      MOV      r10,r2
        0x000021d8:    469b        .F      MOV      r11,r3
        0x000021da:    9e0e        ..      LDR      r6,[sp,#0x38]
        0x000021dc:    4627        'F      MOV      r7,r4
        0x000021de:    46a8        .F      MOV      r8,r5
        0x000021e0:    eba4000a    ....    SUB      r0,r4,r10
        0x000021e4:    9003        ..      STR      r0,[sp,#0xc]
        0x000021e6:    46a9        .F      MOV      r9,r5
        0x000021e8:    9402        ..      STR      r4,[sp,#8]
        0x000021ea:    eb05000b    ....    ADD      r0,r5,r11
        0x000021ee:    9001        ..      STR      r0,[sp,#4]
        0x000021f0:    464b        KF      MOV      r3,r9
        0x000021f2:    9600        ..      STR      r6,[sp,#0]
        0x000021f4:    4641        AF      MOV      r1,r8
        0x000021f6:    4638        8F      MOV      r0,r7
        0x000021f8:    9a03        ..      LDR      r2,[sp,#0xc]
        0x000021fa:    f7fef873    ..s.    BL       LCD_DrawLine_color ; 0x2e4
        0x000021fe:    9600        ..      STR      r6,[sp,#0]
        0x00002200:    4641        AF      MOV      r1,r8
        0x00002202:    4638        8F      MOV      r0,r7
        0x00002204:    e9dd3201    ...2    LDRD     r3,r2,[sp,#4]
        0x00002208:    f7fef86c    ..l.    BL       LCD_DrawLine_color ; 0x2e4
        0x0000220c:    9600        ..      STR      r6,[sp,#0]
        0x0000220e:    4649        IF      MOV      r1,r9
        0x00002210:    e9dd3201    ...2    LDRD     r3,r2,[sp,#4]
        0x00002214:    9803        ..      LDR      r0,[sp,#0xc]
        0x00002216:    f7fef865    ..e.    BL       LCD_DrawLine_color ; 0x2e4
        0x0000221a:    e8bd9fff    ....    POP      {r0-r12,pc}
    i.draw_reversed_trapezoid
    draw_reversed_trapezoid
        0x0000221e:    e92d4ff0    -..O    PUSH     {r4-r11,lr}
        0x00002222:    b087        ..      SUB      sp,sp,#0x1c
        0x00002224:    4604        .F      MOV      r4,r0
        0x00002226:    460d        .F      MOV      r5,r1
        0x00002228:    4616        .F      MOV      r6,r2
        0x0000222a:    461f        .F      MOV      r7,r3
        0x0000222c:    e9ddb910    ....    LDRD     r11,r9,[sp,#0x40]
        0x00002230:    4630        0F      MOV      r0,r6
        0x00002232:    eb0671d0    ...q    ADD      r1,r6,r0,LSR #31
        0x00002236:    eba40161    ..a.    SUB      r1,r4,r1,ASR #1
        0x0000223a:    9106        ..      STR      r1,[sp,#0x18]
        0x0000223c:    46a8        .F      MOV      r8,r5
        0x0000223e:    eb0671d0    ...q    ADD      r1,r6,r0,LSR #31
        0x00002242:    eb040161    ..a.    ADD      r1,r4,r1,ASR #1
        0x00002246:    9105        ..      STR      r1,[sp,#0x14]
        0x00002248:    46aa        .F      MOV      r10,r5
        0x0000224a:    4638        8F      MOV      r0,r7
        0x0000224c:    eb0771d0    ...q    ADD      r1,r7,r0,LSR #31
        0x00002250:    eba40161    ..a.    SUB      r1,r4,r1,ASR #1
        0x00002254:    9104        ..      STR      r1,[sp,#0x10]
        0x00002256:    eba5000b    ....    SUB      r0,r5,r11
        0x0000225a:    9003        ..      STR      r0,[sp,#0xc]
        0x0000225c:    4638        8F      MOV      r0,r7
        0x0000225e:    eb0771d0    ...q    ADD      r1,r7,r0,LSR #31
        0x00002262:    eb040161    ..a.    ADD      r1,r4,r1,ASR #1
        0x00002266:    9102        ..      STR      r1,[sp,#8]
        0x00002268:    eba5000b    ....    SUB      r0,r5,r11
        0x0000226c:    9001        ..      STR      r0,[sp,#4]
        0x0000226e:    f8cd9000    ....    STR      r9,[sp,#0]
        0x00002272:    4641        AF      MOV      r1,r8
        0x00002274:    e9dd3203    ...2    LDRD     r3,r2,[sp,#0xc]
        0x00002278:    9806        ..      LDR      r0,[sp,#0x18]
        0x0000227a:    f7fef833    ..3.    BL       LCD_DrawLine_color ; 0x2e4
        0x0000227e:    4653        SF      MOV      r3,r10
        0x00002280:    f8cd9000    ....    STR      r9,[sp,#0]
        0x00002284:    9a05        ..      LDR      r2,[sp,#0x14]
        0x00002286:    e9dd1001    ....    LDRD     r1,r0,[sp,#4]
        0x0000228a:    f7fef82b    ..+.    BL       LCD_DrawLine_color ; 0x2e4
        0x0000228e:    f8cd9000    ....    STR      r9,[sp,#0]
        0x00002292:    e9dd3203    ...2    LDRD     r3,r2,[sp,#0xc]
        0x00002296:    e9dd1001    ....    LDRD     r1,r0,[sp,#4]
        0x0000229a:    f7fef823    ..#.    BL       LCD_DrawLine_color ; 0x2e4
        0x0000229e:    b007        ..      ADD      sp,sp,#0x1c
        0x000022a0:    e8bd8ff0    ....    POP      {r4-r11,pc}
    i.draw_right_triangle
    draw_right_triangle
        0x000022a4:    e92d5fff    -.._    PUSH     {r0-r12,lr}
        0x000022a8:    4604        .F      MOV      r4,r0
        0x000022aa:    460d        .F      MOV      r5,r1
        0x000022ac:    4692        .F      MOV      r10,r2
        0x000022ae:    469b        .F      MOV      r11,r3
        0x000022b0:    9e0e        ..      LDR      r6,[sp,#0x38]
        0x000022b2:    4627        'F      MOV      r7,r4
        0x000022b4:    46a8        .F      MOV      r8,r5
        0x000022b6:    eb04000a    ....    ADD      r0,r4,r10
        0x000022ba:    9003        ..      STR      r0,[sp,#0xc]
        0x000022bc:    46a9        .F      MOV      r9,r5
        0x000022be:    9402        ..      STR      r4,[sp,#8]
        0x000022c0:    eba5000b    ....    SUB      r0,r5,r11
        0x000022c4:    9001        ..      STR      r0,[sp,#4]
        0x000022c6:    464b        KF      MOV      r3,r9
        0x000022c8:    9600        ..      STR      r6,[sp,#0]
        0x000022ca:    4641        AF      MOV      r1,r8
        0x000022cc:    4638        8F      MOV      r0,r7
        0x000022ce:    9a03        ..      LDR      r2,[sp,#0xc]
        0x000022d0:    f7fef808    ....    BL       LCD_DrawLine_color ; 0x2e4
        0x000022d4:    9600        ..      STR      r6,[sp,#0]
        0x000022d6:    4641        AF      MOV      r1,r8
        0x000022d8:    4638        8F      MOV      r0,r7
        0x000022da:    e9dd3201    ...2    LDRD     r3,r2,[sp,#4]
        0x000022de:    f7fef801    ....    BL       LCD_DrawLine_color ; 0x2e4
        0x000022e2:    9600        ..      STR      r6,[sp,#0]
        0x000022e4:    4649        IF      MOV      r1,r9
        0x000022e6:    e9dd3201    ...2    LDRD     r3,r2,[sp,#4]
        0x000022ea:    9803        ..      LDR      r0,[sp,#0xc]
        0x000022ec:    f7fdfffa    ....    BL       LCD_DrawLine_color ; 0x2e4
        0x000022f0:    e8bd9fff    ....    POP      {r0-r12,pc}
    i.draw_star
    draw_star
        0x000022f4:    b570        p.      PUSH     {r4-r6,lr}
        0x000022f6:    4604        .F      MOV      r4,r0
        0x000022f8:    460d        .F      MOV      r5,r1
        0x000022fa:    1f29        ).      SUBS     r1,r5,#4
        0x000022fc:    1d2b        +.      ADDS     r3,r5,#4
        0x000022fe:    4622        "F      MOV      r2,r4
        0x00002300:    4620         F      MOV      r0,r4
        0x00002302:    f7fdff97    ....    BL       LCD_DrawLine ; 0x234
        0x00002306:    1ea0        ..      SUBS     r0,r4,#2
        0x00002308:    462b        +F      MOV      r3,r5
        0x0000230a:    1ca2        ..      ADDS     r2,r4,#2
        0x0000230c:    4629        )F      MOV      r1,r5
        0x0000230e:    f7fdff91    ....    BL       LCD_DrawLine ; 0x234
        0x00002312:    bd70        p.      POP      {r4-r6,pc}
    i.draw_start_page
    draw_start_page
        0x00002314:    b51f        ..      PUSH     {r0-r4,lr}
        0x00002316:    f24070ff    @..p    MOV      r0,#0x7ff
        0x0000231a:    f64f4107    O..A    MOV      r1,#0xfc07
        0x0000231e:    a21c        ..      ADR      r2,{pc}+0x72 ; 0x2390
        0x00002320:    2318        .#      MOVS     r3,#0x18
        0x00002322:    e9cd3200    ...2    STRD     r3,r2,[sp,#0]
        0x00002326:    e9cd1002    ....    STRD     r1,r0,[sp,#8]
        0x0000232a:    22c8        ."      MOVS     r2,#0xc8
        0x0000232c:    2150        P!      MOVS     r1,#0x50
        0x0000232e:    2046        F       MOVS     r0,#0x46
        0x00002330:    f7fefdfc    ....    BL       LCD_ShowString_color ; 0xf2c
        0x00002334:    f24070ff    @..p    MOV      r0,#0x7ff
        0x00002338:    f64f4107    O..A    MOV      r1,#0xfc07
        0x0000233c:    a217        ..      ADR      r2,{pc}+0x60 ; 0x239c
        0x0000233e:    2318        .#      MOVS     r3,#0x18
        0x00002340:    e9cd3200    ...2    STRD     r3,r2,[sp,#0]
        0x00002344:    e9cd1002    ....    STRD     r1,r0,[sp,#8]
        0x00002348:    22c8        ."      MOVS     r2,#0xc8
        0x0000234a:    2167        g!      MOVS     r1,#0x67
        0x0000234c:    2055        U       MOVS     r0,#0x55
        0x0000234e:    f7fefded    ....    BL       LCD_ShowString_color ; 0xf2c
        0x00002352:    2200        ."      MOVS     r2,#0
        0x00002354:    21b4        .!      MOVS     r1,#0xb4
        0x00002356:    205a        Z       MOVS     r0,#0x5a
        0x00002358:    f7fffe24    ..$.    BL       draw_my_plane ; 0x1fa4
        0x0000235c:    2200        ."      MOVS     r2,#0
        0x0000235e:    21b4        .!      MOVS     r1,#0xb4
        0x00002360:    2078        x       MOVS     r0,#0x78
        0x00002362:    f7fffe1f    ....    BL       draw_my_plane ; 0x1fa4
        0x00002366:    2200        ."      MOVS     r2,#0
        0x00002368:    21b4        .!      MOVS     r1,#0xb4
        0x0000236a:    2096        .       MOVS     r0,#0x96
        0x0000236c:    f7fffe1a    ....    BL       draw_my_plane ; 0x1fa4
        0x00002370:    f24070ff    @..p    MOV      r0,#0x7ff
        0x00002374:    2100        .!      MOVS     r1,#0
        0x00002376:    a20b        ..      ADR      r2,{pc}+0x2e ; 0x23a4
        0x00002378:    230c        .#      MOVS     r3,#0xc
        0x0000237a:    e9cd3200    ...2    STRD     r3,r2,[sp,#0]
        0x0000237e:    e9cd1002    ....    STRD     r1,r0,[sp,#8]
        0x00002382:    22c8        ."      MOVS     r2,#0xc8
        0x00002384:    f2401107    @...    MOV      r1,#0x107
        0x00002388:    203c        <       MOVS     r0,#0x3c
        0x0000238a:    f7fefdcf    ....    BL       LCD_ShowString_color ; 0xf2c
        0x0000238e:    bd1f        ..      POP      {r0-r4,pc}
    $d
        0x00002390:    43524941    AIRC    DCD    1129466177
        0x00002394:    54464152    RAFT    DCD    1413890386
        0x00002398:    00000000    ....    DCD    0
        0x0000239c:    54544142    BATT    DCD    1414807874
        0x000023a0:    0000454c    LE..    DCD    17740
        0x000023a4:    73657250    Pres    DCD    1936028240
        0x000023a8:    454b2073    s KE    DCD    1162551411
        0x000023ac:    74203059    Y0 t    DCD    1948266585
        0x000023b0:    7473206f    o st    DCD    1953701999
        0x000023b4:    00747261    art.    DCD    7631457
    $t
    i.draw_trapezoid
    draw_trapezoid
        0x000023b8:    e92d4ff0    -..O    PUSH     {r4-r11,lr}
        0x000023bc:    b087        ..      SUB      sp,sp,#0x1c
        0x000023be:    4604        .F      MOV      r4,r0
        0x000023c0:    460d        .F      MOV      r5,r1
        0x000023c2:    4616        .F      MOV      r6,r2
        0x000023c4:    461f        .F      MOV      r7,r3
        0x000023c6:    e9ddb910    ....    LDRD     r11,r9,[sp,#0x40]
        0x000023ca:    4630        0F      MOV      r0,r6
        0x000023cc:    eb0671d0    ...q    ADD      r1,r6,r0,LSR #31
        0x000023d0:    eba40161    ..a.    SUB      r1,r4,r1,ASR #1
        0x000023d4:    9106        ..      STR      r1,[sp,#0x18]
        0x000023d6:    46a8        .F      MOV      r8,r5
        0x000023d8:    eb0671d0    ...q    ADD      r1,r6,r0,LSR #31
        0x000023dc:    eb040161    ..a.    ADD      r1,r4,r1,ASR #1
        0x000023e0:    9105        ..      STR      r1,[sp,#0x14]
        0x000023e2:    46aa        .F      MOV      r10,r5
        0x000023e4:    4638        8F      MOV      r0,r7
        0x000023e6:    eb0771d0    ...q    ADD      r1,r7,r0,LSR #31
        0x000023ea:    eba40161    ..a.    SUB      r1,r4,r1,ASR #1
        0x000023ee:    9104        ..      STR      r1,[sp,#0x10]
        0x000023f0:    eb05000b    ....    ADD      r0,r5,r11
        0x000023f4:    9003        ..      STR      r0,[sp,#0xc]
        0x000023f6:    4638        8F      MOV      r0,r7
        0x000023f8:    eb0771d0    ...q    ADD      r1,r7,r0,LSR #31
        0x000023fc:    eb040161    ..a.    ADD      r1,r4,r1,ASR #1
        0x00002400:    9102        ..      STR      r1,[sp,#8]
        0x00002402:    eb05000b    ....    ADD      r0,r5,r11
        0x00002406:    9001        ..      STR      r0,[sp,#4]
        0x00002408:    f8cd9000    ....    STR      r9,[sp,#0]
        0x0000240c:    4641        AF      MOV      r1,r8
        0x0000240e:    e9dd3203    ...2    LDRD     r3,r2,[sp,#0xc]
        0x00002412:    9806        ..      LDR      r0,[sp,#0x18]
        0x00002414:    f7fdff66    ..f.    BL       LCD_DrawLine_color ; 0x2e4
        0x00002418:    4653        SF      MOV      r3,r10
        0x0000241a:    f8cd9000    ....    STR      r9,[sp,#0]
        0x0000241e:    9a05        ..      LDR      r2,[sp,#0x14]
        0x00002420:    e9dd1001    ....    LDRD     r1,r0,[sp,#4]
        0x00002424:    f7fdff5e    ..^.    BL       LCD_DrawLine_color ; 0x2e4
        0x00002428:    f8cd9000    ....    STR      r9,[sp,#0]
        0x0000242c:    e9dd3203    ...2    LDRD     r3,r2,[sp,#0xc]
        0x00002430:    e9dd1001    ....    LDRD     r1,r0,[sp,#4]
        0x00002434:    f7fdff56    ..V.    BL       LCD_DrawLine_color ; 0x2e4
        0x00002438:    b007        ..      ADD      sp,sp,#0x1c
        0x0000243a:    e8bd8ff0    ....    POP      {r4-r11,pc}
    i.generate_boss_buttles
    generate_boss_buttles
        0x0000243e:    e92d41f0    -..A    PUSH     {r4-r8,lr}
        0x00002442:    4606        .F      MOV      r6,r0
        0x00002444:    460d        .F      MOV      r5,r1
        0x00002446:    2700        .'      MOVS     r7,#0
        0x00002448:    e020         .      B        0x248c ; generate_boss_buttles + 78
        0x0000244a:    f7fdfe4f    ..O.    BL       rand ; 0xec
        0x0000244e:    21c8        .!      MOVS     r1,#0xc8
        0x00002450:    fb90f2f1    ....    SDIV     r2,r0,r1
        0x00002454:    fb010012    ....    MLS      r0,r1,r2,r0
        0x00002458:    2803        .(      CMP      r0,#3
        0x0000245a:    da16        ..      BGE      0x248a ; generate_boss_buttles + 76
        0x0000245c:    2400        .$      MOVS     r4,#0
        0x0000245e:    e011        ..      B        0x2484 ; generate_boss_buttles + 70
        0x00002460:    f8550034    U.4.    LDR      r0,[r5,r4,LSL #3]
        0x00002464:    b968        h.      CBNZ     r0,0x2482 ; generate_boss_buttles + 68
        0x00002466:    6830        0h      LDR      r0,[r6,#0]
        0x00002468:    381e        .8      SUBS     r0,r0,#0x1e
        0x0000246a:    eb070147    ..G.    ADD      r1,r7,r7,LSL #1
        0x0000246e:    eb000041    ..A.    ADD      r0,r0,r1,LSL #1
        0x00002472:    f8450034    E.4.    STR      r0,[r5,r4,LSL #3]
        0x00002476:    6870        ph      LDR      r0,[r6,#4]
        0x00002478:    300f        .0      ADDS     r0,r0,#0xf
        0x0000247a:    eb0501c4    ....    ADD      r1,r5,r4,LSL #3
        0x0000247e:    6048        H`      STR      r0,[r1,#4]
        0x00002480:    e002        ..      B        0x2488 ; generate_boss_buttles + 74
        0x00002482:    1c64        d.      ADDS     r4,r4,#1
        0x00002484:    2c32        2,      CMP      r4,#0x32
        0x00002486:    dbeb        ..      BLT      0x2460 ; generate_boss_buttles + 34
        0x00002488:    bf00        ..      NOP      
        0x0000248a:    1c7f        ..      ADDS     r7,r7,#1
        0x0000248c:    2f0b        ./      CMP      r7,#0xb
        0x0000248e:    dbdc        ..      BLT      0x244a ; generate_boss_buttles + 12
        0x00002490:    e8bd81f0    ....    POP      {r4-r8,pc}
    i.generate_enemy_buttles
    generate_enemy_buttles
        0x00002494:    e92d41f0    -..A    PUSH     {r4-r8,lr}
        0x00002498:    4680        .F      MOV      r8,r0
        0x0000249a:    460e        .F      MOV      r6,r1
        0x0000249c:    4617        .F      MOV      r7,r2
        0x0000249e:    2400        .$      MOVS     r4,#0
        0x000024a0:    e023        #.      B        0x24ea ; generate_enemy_buttles + 86
        0x000024a2:    f8560034    V.4.    LDR      r0,[r6,r4,LSL #3]
        0x000024a6:    b1f8        ..      CBZ      r0,0x24e8 ; generate_enemy_buttles + 84
        0x000024a8:    f7fdfe20    .. .    BL       rand ; 0xec
        0x000024ac:    21c8        .!      MOVS     r1,#0xc8
        0x000024ae:    fb90f2f1    ....    SDIV     r2,r0,r1
        0x000024b2:    fb010112    ....    MLS      r1,r1,r2,r0
        0x000024b6:    f1080001    ....    ADD      r0,r8,#1
        0x000024ba:    4281        .B      CMP      r1,r0
        0x000024bc:    da14        ..      BGE      0x24e8 ; generate_enemy_buttles + 84
        0x000024be:    2500        .%      MOVS     r5,#0
        0x000024c0:    e00f        ..      B        0x24e2 ; generate_enemy_buttles + 78
        0x000024c2:    f8570035    W.5.    LDR      r0,[r7,r5,LSL #3]
        0x000024c6:    b958        X.      CBNZ     r0,0x24e0 ; generate_enemy_buttles + 76
        0x000024c8:    f8560034    V.4.    LDR      r0,[r6,r4,LSL #3]
        0x000024cc:    f8470035    G.5.    STR      r0,[r7,r5,LSL #3]
        0x000024d0:    eb0600c4    ....    ADD      r0,r6,r4,LSL #3
        0x000024d4:    6840        @h      LDR      r0,[r0,#4]
        0x000024d6:    300f        .0      ADDS     r0,r0,#0xf
        0x000024d8:    eb0701c5    ....    ADD      r1,r7,r5,LSL #3
        0x000024dc:    6048        H`      STR      r0,[r1,#4]
        0x000024de:    e002        ..      B        0x24e6 ; generate_enemy_buttles + 82
        0x000024e0:    1c6d        m.      ADDS     r5,r5,#1
        0x000024e2:    2d32        2-      CMP      r5,#0x32
        0x000024e4:    dbed        ..      BLT      0x24c2 ; generate_enemy_buttles + 46
        0x000024e6:    bf00        ..      NOP      
        0x000024e8:    1c64        d.      ADDS     r4,r4,#1
        0x000024ea:    2c05        .,      CMP      r4,#5
        0x000024ec:    dbd9        ..      BLT      0x24a2 ; generate_enemy_buttles + 14
        0x000024ee:    e8bd81f0    ....    POP      {r4-r8,pc}
    i.generate_enemy_planes
    generate_enemy_planes
        0x000024f2:    b570        p.      PUSH     {r4-r6,lr}
        0x000024f4:    4606        .F      MOV      r6,r0
        0x000024f6:    460d        .F      MOV      r5,r1
        0x000024f8:    2400        .$      MOVS     r4,#0
        0x000024fa:    e01c        ..      B        0x2536 ; generate_enemy_planes + 68
        0x000024fc:    f8550034    U.4.    LDR      r0,[r5,r4,LSL #3]
        0x00002500:    b9c0        ..      CBNZ     r0,0x2534 ; generate_enemy_planes + 66
        0x00002502:    f7fdfdf3    ....    BL       rand ; 0xec
        0x00002506:    2164        d!      MOVS     r1,#0x64
        0x00002508:    fb90f2f1    ....    SDIV     r2,r0,r1
        0x0000250c:    fb010112    ....    MLS      r1,r1,r2,r0
        0x00002510:    1db0        ..      ADDS     r0,r6,#6
        0x00002512:    4281        .B      CMP      r1,r0
        0x00002514:    da0d        ..      BGE      0x2532 ; generate_enemy_planes + 64
        0x00002516:    f7fdfde9    ....    BL       rand ; 0xec
        0x0000251a:    21d2        .!      MOVS     r1,#0xd2
        0x0000251c:    fb90f2f1    ....    SDIV     r2,r0,r1
        0x00002520:    fb010012    ....    MLS      r0,r1,r2,r0
        0x00002524:    300e        .0      ADDS     r0,r0,#0xe
        0x00002526:    f8450034    E.4.    STR      r0,[r5,r4,LSL #3]
        0x0000252a:    203d        =       MOVS     r0,#0x3d
        0x0000252c:    eb0501c4    ....    ADD      r1,r5,r4,LSL #3
        0x00002530:    6048        H`      STR      r0,[r1,#4]
        0x00002532:    e002        ..      B        0x253a ; generate_enemy_planes + 72
        0x00002534:    1c64        d.      ADDS     r4,r4,#1
        0x00002536:    2c05        .,      CMP      r4,#5
        0x00002538:    dbe0        ..      BLT      0x24fc ; generate_enemy_planes + 10
        0x0000253a:    bf00        ..      NOP      
        0x0000253c:    bd70        p.      POP      {r4-r6,pc}
    i.getKey
    getKey
        0x0000253e:    f04f2040    O.@     MOV      r0,#0x40004000
        0x00002542:    6800        .h      LDR      r0,[r0,#0]
        0x00002544:    f3c00040    ..@.    UBFX     r0,r0,#1,#1
        0x00002548:    b908        ..      CBNZ     r0,0x254e ; getKey + 16
        0x0000254a:    2001        .       MOVS     r0,#1
        0x0000254c:    4770        pG      BX       lr
        0x0000254e:    f04f2040    O.@     MOV      r0,#0x40004000
        0x00002552:    6800        .h      LDR      r0,[r0,#0]
        0x00002554:    f0000001    ....    AND      r0,r0,#1
        0x00002558:    b908        ..      CBNZ     r0,0x255e ; getKey + 32
        0x0000255a:    2000        .       MOVS     r0,#0
        0x0000255c:    e7f6        ..      B        0x254c ; getKey + 14
        0x0000255e:    f04f2040    O.@     MOV      r0,#0x40004000
        0x00002562:    6800        .h      LDR      r0,[r0,#0]
        0x00002564:    f3c00080    ....    UBFX     r0,r0,#2,#1
        0x00002568:    b908        ..      CBNZ     r0,0x256e ; getKey + 48
        0x0000256a:    2002        .       MOVS     r0,#2
        0x0000256c:    e7ee        ..      B        0x254c ; getKey + 14
        0x0000256e:    20ff        .       MOVS     r0,#0xff
        0x00002570:    e7ec        ..      B        0x254c ; getKey + 14
        0x00002572:    0000        ..      MOVS     r0,r0
    i.init_interface_info
    init_interface_info
        0x00002574:    2000        .       MOVS     r0,#0
        0x00002576:    2100        .!      MOVS     r1,#0
        0x00002578:    4a24        $J      LDR      r2,[pc,#144] ; [0x260c] = 0x20000024
        0x0000257a:    6011        .`      STR      r1,[r2,#0]
        0x0000257c:    6051        Q`      STR      r1,[r2,#4]
        0x0000257e:    6091        .`      STR      r1,[r2,#8]
        0x00002580:    2103        .!      MOVS     r1,#3
        0x00002582:    60d1        .`      STR      r1,[r2,#0xc]
        0x00002584:    2178        x!      MOVS     r1,#0x78
        0x00002586:    6111        .a      STR      r1,[r2,#0x10]
        0x00002588:    f44f7291    O..r    MOV      r2,#0x122
        0x0000258c:    491f        .I      LDR      r1,[pc,#124] ; [0x260c] = 0x20000024
        0x0000258e:    614a        Ja      STR      r2,[r1,#0x14]
        0x00002590:    bf00        ..      NOP      
        0x00002592:    e008        ..      B        0x25a6 ; init_interface_info + 50
        0x00002594:    2200        ."      MOVS     r2,#0
        0x00002596:    491d        .I      LDR      r1,[pc,#116] ; [0x260c] = 0x20000024
        0x00002598:    3118        .1      ADDS     r1,r1,#0x18
        0x0000259a:    f8412030    A.0     STR      r2,[r1,r0,LSL #3]
        0x0000259e:    eb0101c0    ....    ADD      r1,r1,r0,LSL #3
        0x000025a2:    604a        J`      STR      r2,[r1,#4]
        0x000025a4:    1c40        @.      ADDS     r0,r0,#1
        0x000025a6:    2814        .(      CMP      r0,#0x14
        0x000025a8:    dbf4        ..      BLT      0x2594 ; init_interface_info + 32
        0x000025aa:    2101        .!      MOVS     r1,#1
        0x000025ac:    4a17        .J      LDR      r2,[pc,#92] ; [0x260c] = 0x20000024
        0x000025ae:    f8c210b8    ....    STR      r1,[r2,#0xb8]
        0x000025b2:    2100        .!      MOVS     r1,#0
        0x000025b4:    f8c210bc    ....    STR      r1,[r2,#0xbc]
        0x000025b8:    2200        ."      MOVS     r2,#0
        0x000025ba:    4914        .I      LDR      r1,[pc,#80] ; [0x260c] = 0x20000024
        0x000025bc:    f8c120c0    ...     STR      r2,[r1,#0xc0]
        0x000025c0:    210a        .!      MOVS     r1,#0xa
        0x000025c2:    4a12        .J      LDR      r2,[pc,#72] ; [0x260c] = 0x20000024
        0x000025c4:    f8c210c4    ....    STR      r1,[r2,#0xc4]
        0x000025c8:    2103        .!      MOVS     r1,#3
        0x000025ca:    f8c210c8    ....    STR      r1,[r2,#0xc8]
        0x000025ce:    2100        .!      MOVS     r1,#0
        0x000025d0:    f8c21284    ....    STR      r1,[r2,#0x284]
        0x000025d4:    2000        .       MOVS     r0,#0
        0x000025d6:    e008        ..      B        0x25ea ; init_interface_info + 118
        0x000025d8:    2200        ."      MOVS     r2,#0
        0x000025da:    490c        .I      LDR      r1,[pc,#48] ; [0x260c] = 0x20000024
        0x000025dc:    31cc        .1      ADDS     r1,r1,#0xcc
        0x000025de:    f8412030    A.0     STR      r2,[r1,r0,LSL #3]
        0x000025e2:    eb0101c0    ....    ADD      r1,r1,r0,LSL #3
        0x000025e6:    604a        J`      STR      r2,[r1,#4]
        0x000025e8:    1c40        @.      ADDS     r0,r0,#1
        0x000025ea:    2805        .(      CMP      r0,#5
        0x000025ec:    dbf4        ..      BLT      0x25d8 ; init_interface_info + 100
        0x000025ee:    2000        .       MOVS     r0,#0
        0x000025f0:    e008        ..      B        0x2604 ; init_interface_info + 144
        0x000025f2:    2200        ."      MOVS     r2,#0
        0x000025f4:    4905        .I      LDR      r1,[pc,#20] ; [0x260c] = 0x20000024
        0x000025f6:    31f4        .1      ADDS     r1,r1,#0xf4
        0x000025f8:    f8412030    A.0     STR      r2,[r1,r0,LSL #3]
        0x000025fc:    eb0101c0    ....    ADD      r1,r1,r0,LSL #3
        0x00002600:    604a        J`      STR      r2,[r1,#4]
        0x00002602:    1c40        @.      ADDS     r0,r0,#1
        0x00002604:    2832        2(      CMP      r0,#0x32
        0x00002606:    dbf4        ..      BLT      0x25f2 ; init_interface_info + 126
        0x00002608:    4770        pG      BX       lr
    $d
        0x0000260a:    0000        ..      DCW    0
        0x0000260c:    20000024    $..     DCD    536870948
    $t
    i.init_interface_info_second_time
    init_interface_info_second_time
        0x00002610:    2000        .       MOVS     r0,#0
        0x00002612:    2103        .!      MOVS     r1,#3
        0x00002614:    4a22        "J      LDR      r2,[pc,#136] ; [0x26a0] = 0x20000024
        0x00002616:    60d1        .`      STR      r1,[r2,#0xc]
        0x00002618:    2178        x!      MOVS     r1,#0x78
        0x0000261a:    6111        .a      STR      r1,[r2,#0x10]
        0x0000261c:    f44f7291    O..r    MOV      r2,#0x122
        0x00002620:    491f        .I      LDR      r1,[pc,#124] ; [0x26a0] = 0x20000024
        0x00002622:    614a        Ja      STR      r2,[r1,#0x14]
        0x00002624:    bf00        ..      NOP      
        0x00002626:    e008        ..      B        0x263a ; init_interface_info_second_time + 42
        0x00002628:    2200        ."      MOVS     r2,#0
        0x0000262a:    491d        .I      LDR      r1,[pc,#116] ; [0x26a0] = 0x20000024
        0x0000262c:    3118        .1      ADDS     r1,r1,#0x18
        0x0000262e:    f8412030    A.0     STR      r2,[r1,r0,LSL #3]
        0x00002632:    eb0101c0    ....    ADD      r1,r1,r0,LSL #3
        0x00002636:    604a        J`      STR      r2,[r1,#4]
        0x00002638:    1c40        @.      ADDS     r0,r0,#1
        0x0000263a:    2814        .(      CMP      r0,#0x14
        0x0000263c:    dbf4        ..      BLT      0x2628 ; init_interface_info_second_time + 24
        0x0000263e:    2101        .!      MOVS     r1,#1
        0x00002640:    4a17        .J      LDR      r2,[pc,#92] ; [0x26a0] = 0x20000024
        0x00002642:    f8c210b8    ....    STR      r1,[r2,#0xb8]
        0x00002646:    2100        .!      MOVS     r1,#0
        0x00002648:    f8c210bc    ....    STR      r1,[r2,#0xbc]
        0x0000264c:    2200        ."      MOVS     r2,#0
        0x0000264e:    4914        .I      LDR      r1,[pc,#80] ; [0x26a0] = 0x20000024
        0x00002650:    f8c120c0    ...     STR      r2,[r1,#0xc0]
        0x00002654:    210a        .!      MOVS     r1,#0xa
        0x00002656:    4a12        .J      LDR      r2,[pc,#72] ; [0x26a0] = 0x20000024
        0x00002658:    f8c210c4    ....    STR      r1,[r2,#0xc4]
        0x0000265c:    2103        .!      MOVS     r1,#3
        0x0000265e:    f8c210c8    ....    STR      r1,[r2,#0xc8]
        0x00002662:    2100        .!      MOVS     r1,#0
        0x00002664:    f8c21284    ....    STR      r1,[r2,#0x284]
        0x00002668:    2000        .       MOVS     r0,#0
        0x0000266a:    e008        ..      B        0x267e ; init_interface_info_second_time + 110
        0x0000266c:    2200        ."      MOVS     r2,#0
        0x0000266e:    490c        .I      LDR      r1,[pc,#48] ; [0x26a0] = 0x20000024
        0x00002670:    31cc        .1      ADDS     r1,r1,#0xcc
        0x00002672:    f8412030    A.0     STR      r2,[r1,r0,LSL #3]
        0x00002676:    eb0101c0    ....    ADD      r1,r1,r0,LSL #3
        0x0000267a:    604a        J`      STR      r2,[r1,#4]
        0x0000267c:    1c40        @.      ADDS     r0,r0,#1
        0x0000267e:    2805        .(      CMP      r0,#5
        0x00002680:    dbf4        ..      BLT      0x266c ; init_interface_info_second_time + 92
        0x00002682:    2000        .       MOVS     r0,#0
        0x00002684:    e008        ..      B        0x2698 ; init_interface_info_second_time + 136
        0x00002686:    2200        ."      MOVS     r2,#0
        0x00002688:    4905        .I      LDR      r1,[pc,#20] ; [0x26a0] = 0x20000024
        0x0000268a:    31f4        .1      ADDS     r1,r1,#0xf4
        0x0000268c:    f8412030    A.0     STR      r2,[r1,r0,LSL #3]
        0x00002690:    eb0101c0    ....    ADD      r1,r1,r0,LSL #3
        0x00002694:    604a        J`      STR      r2,[r1,#4]
        0x00002696:    1c40        @.      ADDS     r0,r0,#1
        0x00002698:    2832        2(      CMP      r0,#0x32
        0x0000269a:    dbf4        ..      BLT      0x2686 ; init_interface_info_second_time + 118
        0x0000269c:    4770        pG      BX       lr
    $d
        0x0000269e:    0000        ..      DCW    0
        0x000026a0:    20000024    $..     DCD    536870948
    $t
    i.init_play_interface
    init_play_interface
        0x000026a4:    b51f        ..      PUSH     {r0-r4,lr}
        0x000026a6:    2301        .#      MOVS     r3,#1
        0x000026a8:    22ef        ."      MOVS     r2,#0xef
        0x000026aa:    4619        .F      MOV      r1,r3
        0x000026ac:    4618        .F      MOV      r0,r3
        0x000026ae:    f7fdfdc1    ....    BL       LCD_DrawLine ; 0x234
        0x000026b2:    2323        ##      MOVS     r3,#0x23
        0x000026b4:    22ef        ."      MOVS     r2,#0xef
        0x000026b6:    4619        .F      MOV      r1,r3
        0x000026b8:    2001        .       MOVS     r0,#1
        0x000026ba:    f7fdfdbb    ....    BL       LCD_DrawLine ; 0x234
        0x000026be:    2323        ##      MOVS     r3,#0x23
        0x000026c0:    2201        ."      MOVS     r2,#1
        0x000026c2:    4611        .F      MOV      r1,r2
        0x000026c4:    4610        .F      MOV      r0,r2
        0x000026c6:    f7fdfdb5    ....    BL       LCD_DrawLine ; 0x234
        0x000026ca:    2323        ##      MOVS     r3,#0x23
        0x000026cc:    22ef        ."      MOVS     r2,#0xef
        0x000026ce:    2101        .!      MOVS     r1,#1
        0x000026d0:    4610        .F      MOV      r0,r2
        0x000026d2:    f7fdfdaf    ....    BL       LCD_DrawLine ; 0x234
        0x000026d6:    2323        ##      MOVS     r3,#0x23
        0x000026d8:    224e        N"      MOVS     r2,#0x4e
        0x000026da:    2101        .!      MOVS     r1,#1
        0x000026dc:    4610        .F      MOV      r0,r2
        0x000026de:    f7fdfda9    ....    BL       LCD_DrawLine ; 0x234
        0x000026e2:    2323        ##      MOVS     r3,#0x23
        0x000026e4:    2296        ."      MOVS     r2,#0x96
        0x000026e6:    2101        .!      MOVS     r1,#1
        0x000026e8:    4610        .F      MOV      r0,r2
        0x000026ea:    f7fdfda3    ....    BL       LCD_DrawLine ; 0x234
        0x000026ee:    f64f70ff    O..p    MOV      r0,#0xffff
        0x000026f2:    211f        .!      MOVS     r1,#0x1f
        0x000026f4:    a216        ..      ADR      r2,{pc}+0x5c ; 0x2750
        0x000026f6:    2310        .#      MOVS     r3,#0x10
        0x000026f8:    e9cd3200    ...2    STRD     r3,r2,[sp,#0]
        0x000026fc:    e9cd1002    ....    STRD     r1,r0,[sp,#8]
        0x00002700:    2318        .#      MOVS     r3,#0x18
        0x00002702:    225a        Z"      MOVS     r2,#0x5a
        0x00002704:    2108        .!      MOVS     r1,#8
        0x00002706:    2005        .       MOVS     r0,#5
        0x00002708:    f7fefc10    ....    BL       LCD_ShowString_color ; 0xf2c
        0x0000270c:    f64f70ff    O..p    MOV      r0,#0xffff
        0x00002710:    f64f4107    O..A    MOV      r1,#0xfc07
        0x00002714:    a210        ..      ADR      r2,{pc}+0x44 ; 0x2758
        0x00002716:    2310        .#      MOVS     r3,#0x10
        0x00002718:    e9cd3200    ...2    STRD     r3,r2,[sp,#0]
        0x0000271c:    e9cd1002    ....    STRD     r1,r0,[sp,#8]
        0x00002720:    2318        .#      MOVS     r3,#0x18
        0x00002722:    225a        Z"      MOVS     r2,#0x5a
        0x00002724:    2108        .!      MOVS     r1,#8
        0x00002726:    2055        U       MOVS     r0,#0x55
        0x00002728:    f7fefc00    ....    BL       LCD_ShowString_color ; 0xf2c
        0x0000272c:    f64f70ff    O..p    MOV      r0,#0xffff
        0x00002730:    f44f4178    O.xA    MOV      r1,#0xf800
        0x00002734:    a20a        ..      ADR      r2,{pc}+0x2c ; 0x2760
        0x00002736:    2310        .#      MOVS     r3,#0x10
        0x00002738:    e9cd3200    ...2    STRD     r3,r2,[sp,#0]
        0x0000273c:    e9cd1002    ....    STRD     r1,r0,[sp,#8]
        0x00002740:    2318        .#      MOVS     r3,#0x18
        0x00002742:    225a        Z"      MOVS     r2,#0x5a
        0x00002744:    2108        .!      MOVS     r1,#8
        0x00002746:    209b        .       MOVS     r0,#0x9b
        0x00002748:    f7fefbf0    ....    BL       LCD_ShowString_color ; 0xf2c
        0x0000274c:    bd1f        ..      POP      {r0-r4,pc}
    $d
        0x0000274e:    0000        ..      DCW    0
        0x00002750:    4f524353    SCRO    DCD    1330791251
        0x00002754:    00003a45    E:..    DCD    14917
        0x00002758:    4556454c    LEVE    DCD    1163281740
        0x0000275c:    00003a4c    L:..    DCD    14924
        0x00002760:    4546494c    LIFE    DCD    1162234188
        0x00002764:    00000000    ....    DCD    0
    $t
    i.key0_to_skip
    key0_to_skip
        0x00002768:    b510        ..      PUSH     {r4,lr}
        0x0000276a:    e007        ..      B        0x277c ; key0_to_skip + 20
        0x0000276c:    2000        .       MOVS     r0,#0
        0x0000276e:    f000f809    ....    BL       keyScan ; 0x2784
        0x00002772:    b900        ..      CBNZ     r0,0x2776 ; key0_to_skip + 14
        0x00002774:    e003        ..      B        0x277e ; key0_to_skip + 22
        0x00002776:    200a        .       MOVS     r0,#0xa
        0x00002778:    f7fff806    ....    BL       delay_ms ; 0x1788
        0x0000277c:    e7f6        ..      B        0x276c ; key0_to_skip + 4
        0x0000277e:    bf00        ..      NOP      
        0x00002780:    bd10        ..      POP      {r4,pc}
        0x00002782:    0000        ..      MOVS     r0,r0
    i.keyScan
    keyScan
        0x00002784:    b530        0.      PUSH     {r4,r5,lr}
        0x00002786:    4605        .F      MOV      r5,r0
        0x00002788:    f7fffed9    ....    BL       getKey ; 0x253e
        0x0000278c:    4604        .F      MOV      r4,r0
        0x0000278e:    b115        ..      CBZ      r5,0x2796 ; keyScan + 18
        0x00002790:    2001        .       MOVS     r0,#1
        0x00002792:    490f        .I      LDR      r1,[pc,#60] ; [0x27d0] = 0x20000008
        0x00002794:    7008        .p      STRB     r0,[r1,#0]
        0x00002796:    480e        .H      LDR      r0,[pc,#56] ; [0x27d0] = 0x20000008
        0x00002798:    7800        .x      LDRB     r0,[r0,#0]
        0x0000279a:    b190        ..      CBZ      r0,0x27c2 ; keyScan + 62
        0x0000279c:    2cff        .,      CMP      r4,#0xff
        0x0000279e:    d010        ..      BEQ      0x27c2 ; keyScan + 62
        0x000027a0:    200a        .       MOVS     r0,#0xa
        0x000027a2:    f7fefff1    ....    BL       delay_ms ; 0x1788
        0x000027a6:    2000        .       MOVS     r0,#0
        0x000027a8:    4909        .I      LDR      r1,[pc,#36] ; [0x27d0] = 0x20000008
        0x000027aa:    7008        .p      STRB     r0,[r1,#0]
        0x000027ac:    2c01        .,      CMP      r4,#1
        0x000027ae:    d101        ..      BNE      0x27b4 ; keyScan + 48
        0x000027b0:    2001        .       MOVS     r0,#1
        0x000027b2:    bd30        0.      POP      {r4,r5,pc}
        0x000027b4:    b90c        ..      CBNZ     r4,0x27ba ; keyScan + 54
        0x000027b6:    2000        .       MOVS     r0,#0
        0x000027b8:    e7fb        ..      B        0x27b2 ; keyScan + 46
        0x000027ba:    2c02        .,      CMP      r4,#2
        0x000027bc:    d106        ..      BNE      0x27cc ; keyScan + 72
        0x000027be:    2002        .       MOVS     r0,#2
        0x000027c0:    e7f7        ..      B        0x27b2 ; keyScan + 46
        0x000027c2:    2cff        .,      CMP      r4,#0xff
        0x000027c4:    d102        ..      BNE      0x27cc ; keyScan + 72
        0x000027c6:    2001        .       MOVS     r0,#1
        0x000027c8:    4901        .I      LDR      r1,[pc,#4] ; [0x27d0] = 0x20000008
        0x000027ca:    7008        .p      STRB     r0,[r1,#0]
        0x000027cc:    20ff        .       MOVS     r0,#0xff
        0x000027ce:    e7f0        ..      B        0x27b2 ; keyScan + 46
    $d
        0x000027d0:    20000008    ...     DCD    536870920
    $t
    i.main
    main
        0x000027d4:    f7fefdc1    ....    BL       all_init ; 0x135a
        0x000027d8:    e001        ..      B        0x27de ; main + 10
        0x000027da:    f000f823    ..#.    BL       run_game ; 0x2824
        0x000027de:    e7fc        ..      B        0x27da ; main + 6
    i.move_boss
    move_boss
        0x000027e0:    b5f8        ..      PUSH     {r3-r7,lr}
        0x000027e2:    4604        .F      MOV      r4,r0
        0x000027e4:    460d        .F      MOV      r5,r1
        0x000027e6:    f64f70ff    O..p    MOV      r0,#0xffff
        0x000027ea:    9000        ..      STR      r0,[sp,#0]
        0x000027ec:    6867        gh      LDR      r7,[r4,#4]
        0x000027ee:    f1070328    ..(.    ADD      r3,r7,#0x28
        0x000027f2:    6827        'h      LDR      r7,[r4,#0]
        0x000027f4:    f1070228    ..(.    ADD      r2,r7,#0x28
        0x000027f8:    6867        gh      LDR      r7,[r4,#4]
        0x000027fa:    f1a70128    ..(.    SUB      r1,r7,#0x28
        0x000027fe:    6827        'h      LDR      r7,[r4,#0]
        0x00002800:    f1a70028    ..(.    SUB      r0,r7,#0x28
        0x00002804:    f7fdfe3c    ..<.    BL       LCD_Fill ; 0x480
        0x00002808:    6820         h      LDR      r0,[r4,#0]
        0x0000280a:    6829        )h      LDR      r1,[r5,#0]
        0x0000280c:    4408        .D      ADD      r0,r0,r1
        0x0000280e:    6020         `      STR      r0,[r4,#0]
        0x00002810:    6820         h      LDR      r0,[r4,#0]
        0x00002812:    282b        +(      CMP      r0,#0x2b
        0x00002814:    db02        ..      BLT      0x281c ; move_boss + 60
        0x00002816:    6820         h      LDR      r0,[r4,#0]
        0x00002818:    28c5        .(      CMP      r0,#0xc5
        0x0000281a:    dd02        ..      BLE      0x2822 ; move_boss + 66
        0x0000281c:    682e        .h      LDR      r6,[r5,#0]
        0x0000281e:    4270        pB      RSBS     r0,r6,#0
        0x00002820:    6028        (`      STR      r0,[r5,#0]
        0x00002822:    bdf8        ..      POP      {r3-r7,pc}
    i.run_game
    run_game
        0x00002824:    b510        ..      PUSH     {r4,lr}
        0x00002826:    f000f821    ..!.    BL       single_game ; 0x286c
        0x0000282a:    4a0f        .J      LDR      r2,[pc,#60] ; [0x2868] = 0x2000002c
        0x0000282c:    1f11        ..      SUBS     r1,r2,#4
        0x0000282e:    1f08        ..      SUBS     r0,r1,#4
        0x00002830:    f7fff9e0    ....    BL       draw_end ; 0x1bf4
        0x00002834:    f7ffff98    ....    BL       key0_to_skip ; 0x2768
        0x00002838:    f24070ff    @..p    MOV      r0,#0x7ff
        0x0000283c:    f7fdfc7e    ..~.    BL       LCD_Clear ; 0x13c
        0x00002840:    f7fffd68    ..h.    BL       draw_start_page ; 0x2314
        0x00002844:    f7ffff90    ....    BL       key0_to_skip ; 0x2768
        0x00002848:    f64f70ff    O..p    MOV      r0,#0xffff
        0x0000284c:    f7fdfc76    ..v.    BL       LCD_Clear ; 0x13c
        0x00002850:    f7fffede    ....    BL       init_interface_info_second_time ; 0x2610
        0x00002854:    f7ffff26    ..&.    BL       init_play_interface ; 0x26a4
        0x00002858:    f7fefff0    ....    BL       draw_all_through_struct ; 0x183c
        0x0000285c:    f44f70fa    O..p    MOV      r0,#0x1f4
        0x00002860:    f7feff92    ....    BL       delay_ms ; 0x1788
        0x00002864:    bd10        ..      POP      {r4,pc}
    $d
        0x00002866:    0000        ..      DCW    0
        0x00002868:    2000002c    ,..     DCD    536870956
    $t
    i.single_game
    single_game
        0x0000286c:    b510        ..      PUSH     {r4,lr}
        0x0000286e:    e0a2        ..      B        0x29b6 ; single_game + 330
        0x00002870:    4852        RH      LDR      r0,[pc,#328] ; [0x29bc] = 0x20000024
        0x00002872:    68c0        .h      LDR      r0,[r0,#0xc]
        0x00002874:    b118        ..      CBZ      r0,0x287e ; single_game + 18
        0x00002876:    4851        QH      LDR      r0,[pc,#324] ; [0x29bc] = 0x20000024
        0x00002878:    f8d000c4    ....    LDR      r0,[r0,#0xc4]
        0x0000287c:    b900        ..      CBNZ     r0,0x2880 ; single_game + 20
        0x0000287e:    e09b        ..      B        0x29b8 ; single_game + 332
        0x00002880:    484e        NH      LDR      r0,[pc,#312] ; [0x29bc] = 0x20000024
        0x00002882:    6800        .h      LDR      r0,[r0,#0]
        0x00002884:    2828        ((      CMP      r0,#0x28
        0x00002886:    db18        ..      BLT      0x28ba ; single_game + 78
        0x00002888:    484c        LH      LDR      r0,[pc,#304] ; [0x29bc] = 0x20000024
        0x0000288a:    f8d00284    ....    LDR      r0,[r0,#0x284]
        0x0000288e:    b9a0        ..      CBNZ     r0,0x28ba ; single_game + 78
        0x00002890:    207f        .       MOVS     r0,#0x7f
        0x00002892:    494a        JI      LDR      r1,[pc,#296] ; [0x29bc] = 0x20000024
        0x00002894:    f8c100bc    ....    STR      r0,[r1,#0xbc]
        0x00002898:    2155        U!      MOVS     r1,#0x55
        0x0000289a:    4848        HH      LDR      r0,[pc,#288] ; [0x29bc] = 0x20000024
        0x0000289c:    f8c010c0    ....    STR      r1,[r0,#0xc0]
        0x000028a0:    2001        .       MOVS     r0,#1
        0x000028a2:    4946        FI      LDR      r1,[pc,#280] ; [0x29bc] = 0x20000024
        0x000028a4:    f8c10284    ....    STR      r0,[r1,#0x284]
        0x000028a8:    f10103f4    ....    ADD      r3,r1,#0xf4
        0x000028ac:    f1010218    ....    ADD      r2,r1,#0x18
        0x000028b0:    31cc        .1      ADDS     r1,r1,#0xcc
        0x000028b2:    f1a100bc    ....    SUB      r0,r1,#0xbc
        0x000028b6:    f7feff19    ....    BL       clear_all_enemy_plane ; 0x16ec
        0x000028ba:    4840        @H      LDR      r0,[pc,#256] ; [0x29bc] = 0x20000024
        0x000028bc:    6800        .h      LDR      r0,[r0,#0]
        0x000028be:    210a        .!      MOVS     r1,#0xa
        0x000028c0:    fb90f2f1    ....    SDIV     r2,r0,r1
        0x000028c4:    fb010012    ....    MLS      r0,r1,r2,r0
        0x000028c8:    b978        x.      CBNZ     r0,0x28ea ; single_game + 126
        0x000028ca:    483c        <H      LDR      r0,[pc,#240] ; [0x29bc] = 0x20000024
        0x000028cc:    6800        .h      LDR      r0,[r0,#0]
        0x000028ce:    fb90f0f1    ....    SDIV     r0,r0,r1
        0x000028d2:    1c40        @.      ADDS     r0,r0,#1
        0x000028d4:    4939        9I      LDR      r1,[pc,#228] ; [0x29bc] = 0x20000024
        0x000028d6:    f8c100b8    ....    STR      r0,[r1,#0xb8]
        0x000028da:    4608        .F      MOV      r0,r1
        0x000028dc:    f8d000b8    ....    LDR      r0,[r0,#0xb8]
        0x000028e0:    2805        .(      CMP      r0,#5
        0x000028e2:    dd02        ..      BLE      0x28ea ; single_game + 126
        0x000028e4:    2005        .       MOVS     r0,#5
        0x000028e6:    f8c100b8    ....    STR      r0,[r1,#0xb8]
        0x000028ea:    4934        4I      LDR      r1,[pc,#208] ; [0x29bc] = 0x20000024
        0x000028ec:    3118        .1      ADDS     r1,r1,#0x18
        0x000028ee:    f1a10008    ....    SUB      r0,r1,#8
        0x000028f2:    f000f865    ..e.    BL       switch_my_act ; 0x29c0
        0x000028f6:    4831        1H      LDR      r0,[pc,#196] ; [0x29bc] = 0x20000024
        0x000028f8:    3018        .0      ADDS     r0,r0,#0x18
        0x000028fa:    f000f975    ..u.    BL       update_my_buttles ; 0x2be8
        0x000028fe:    482f        /H      LDR      r0,[pc,#188] ; [0x29bc] = 0x20000024
        0x00002900:    f8d000bc    ....    LDR      r0,[r0,#0xbc]
        0x00002904:    bb80        ..      CBNZ     r0,0x2968 ; single_game + 252
        0x00002906:    482d        -H      LDR      r0,[pc,#180] ; [0x29bc] = 0x20000024
        0x00002908:    f8d010b8    ....    LDR      r1,[r0,#0xb8]
        0x0000290c:    30cc        .0      ADDS     r0,r0,#0xcc
        0x0000290e:    f000f934    ..4.    BL       update_enemy_planes ; 0x2b7a
        0x00002912:    482a        *H      LDR      r0,[pc,#168] ; [0x29bc] = 0x20000024
        0x00002914:    f8d010b8    ....    LDR      r1,[r0,#0xb8]
        0x00002918:    30f4        .0      ADDS     r0,r0,#0xf4
        0x0000291a:    f000f8fb    ....    BL       update_enemy_buttles ; 0x2b14
        0x0000291e:    4927        'I      LDR      r1,[pc,#156] ; [0x29bc] = 0x20000024
        0x00002920:    f8d100b8    ....    LDR      r0,[r1,#0xb8]
        0x00002924:    31cc        .1      ADDS     r1,r1,#0xcc
        0x00002926:    f7fffde4    ....    BL       generate_enemy_planes ; 0x24f2
        0x0000292a:    4924        $I      LDR      r1,[pc,#144] ; [0x29bc] = 0x20000024
        0x0000292c:    f10102f4    ....    ADD      r2,r1,#0xf4
        0x00002930:    f8d100b8    ....    LDR      r0,[r1,#0xb8]
        0x00002934:    31cc        .1      ADDS     r1,r1,#0xcc
        0x00002936:    f7fffdad    ....    BL       generate_enemy_buttles ; 0x2494
        0x0000293a:    4b20         K      LDR      r3,[pc,#128] ; [0x29bc] = 0x20000024
        0x0000293c:    33cc        .3      ADDS     r3,r3,#0xcc
        0x0000293e:    f1a302bc    ....    SUB      r2,r3,#0xbc
        0x00002942:    1f11        ..      SUBS     r1,r2,#4
        0x00002944:    481d        .H      LDR      r0,[pc,#116] ; [0x29bc] = 0x20000024
        0x00002946:    f7fefe51    ..Q.    BL       check_my_plane_to_enemy_plane_collide ; 0x15ec
        0x0000294a:    4a1c        .J      LDR      r2,[pc,#112] ; [0x29bc] = 0x20000024
        0x0000294c:    3210        .2      ADDS     r2,r2,#0x10
        0x0000294e:    f10201e4    ....    ADD      r1,r2,#0xe4
        0x00002952:    1f10        ..      SUBS     r0,r2,#4
        0x00002954:    f7fefdea    ....    BL       check_my_plane_to_enemy_buttles_collide ; 0x152c
        0x00002958:    4a18        .J      LDR      r2,[pc,#96] ; [0x29bc] = 0x20000024
        0x0000295a:    32cc        .2      ADDS     r2,r2,#0xcc
        0x0000295c:    f1a201b4    ....    SUB      r1,r2,#0xb4
        0x00002960:    4816        .H      LDR      r0,[pc,#88] ; [0x29bc] = 0x20000024
        0x00002962:    f7fefd77    ..w.    BL       check_my_buttles_to_enemy_plane_collide ; 0x1454
        0x00002966:    e021        !.      B        0x29ac ; single_game + 320
        0x00002968:    e7ff        ..      B        0x296a ; single_game + 254
        0x0000296a:    2101        .!      MOVS     r1,#1
        0x0000296c:    4813        .H      LDR      r0,[pc,#76] ; [0x29bc] = 0x20000024
        0x0000296e:    30f4        .0      ADDS     r0,r0,#0xf4
        0x00002970:    f000f8d0    ....    BL       update_enemy_buttles ; 0x2b14
        0x00002974:    4911        .I      LDR      r1,[pc,#68] ; [0x29bc] = 0x20000024
        0x00002976:    31c8        .1      ADDS     r1,r1,#0xc8
        0x00002978:    f1a1000c    ....    SUB      r0,r1,#0xc
        0x0000297c:    f7ffff30    ..0.    BL       move_boss ; 0x27e0
        0x00002980:    490e        .I      LDR      r1,[pc,#56] ; [0x29bc] = 0x20000024
        0x00002982:    31f4        .1      ADDS     r1,r1,#0xf4
        0x00002984:    f1a10038    ..8.    SUB      r0,r1,#0x38
        0x00002988:    f7fffd59    ..Y.    BL       generate_boss_buttles ; 0x243e
        0x0000298c:    4a0b        .J      LDR      r2,[pc,#44] ; [0x29bc] = 0x20000024
        0x0000298e:    3210        .2      ADDS     r2,r2,#0x10
        0x00002990:    f10201e4    ....    ADD      r1,r2,#0xe4
        0x00002994:    1f10        ..      SUBS     r0,r2,#4
        0x00002996:    f7fefdc9    ....    BL       check_my_plane_to_enemy_buttles_collide ; 0x152c
        0x0000299a:    4b08        .K      LDR      r3,[pc,#32] ; [0x29bc] = 0x20000024
        0x0000299c:    33bc        .3      ADDS     r3,r3,#0xbc
        0x0000299e:    f1a302a4    ....    SUB      r2,r3,#0xa4
        0x000029a2:    f10201ac    ....    ADD      r1,r2,#0xac
        0x000029a6:    4805        .H      LDR      r0,[pc,#20] ; [0x29bc] = 0x20000024
        0x000029a8:    f7fefcf2    ....    BL       check_my_buttles_to_boss_collide ; 0x1390
        0x000029ac:    f7feff46    ..F.    BL       draw_all_through_struct ; 0x183c
        0x000029b0:    200a        .       MOVS     r0,#0xa
        0x000029b2:    f7fefee9    ....    BL       delay_ms ; 0x1788
        0x000029b6:    e75b        [.      B        0x2870 ; single_game + 4
        0x000029b8:    bf00        ..      NOP      
        0x000029ba:    bd10        ..      POP      {r4,pc}
    $d
        0x000029bc:    20000024    $..     DCD    536870948
    $t
    i.switch_my_act
    switch_my_act
        0x000029c0:    b5f8        ..      PUSH     {r3-r7,lr}
        0x000029c2:    4604        .F      MOV      r4,r0
        0x000029c4:    460e        .F      MOV      r6,r1
        0x000029c6:    27ff        .'      MOVS     r7,#0xff
        0x000029c8:    f04f2040    O.@     MOV      r0,#0x40004000
        0x000029cc:    6800        .h      LDR      r0,[r0,#0]
        0x000029ce:    f3c000c0    ....    UBFX     r0,r0,#3,#1
        0x000029d2:    b1a0        ..      CBZ      r0,0x29fe ; switch_my_act + 62
        0x000029d4:    2500        .%      MOVS     r5,#0
        0x000029d6:    e00f        ..      B        0x29f8 ; switch_my_act + 56
        0x000029d8:    f04f4080    O..@    MOV      r0,#0x40000000
        0x000029dc:    6840        @h      LDR      r0,[r0,#4]
        0x000029de:    f0000002    ....    AND      r0,r0,#2
        0x000029e2:    b128        (.      CBZ      r0,0x29f0 ; switch_my_act + 48
        0x000029e4:    f04f4080    O..@    MOV      r0,#0x40000000
        0x000029e8:    6800        .h      LDR      r0,[r0,#0]
        0x000029ea:    3830        08      SUBS     r0,r0,#0x30
        0x000029ec:    b2c7        ..      UXTB     r7,r0
        0x000029ee:    e002        ..      B        0x29f6 ; switch_my_act + 54
        0x000029f0:    200a        .       MOVS     r0,#0xa
        0x000029f2:    f7fefec9    ....    BL       delay_ms ; 0x1788
        0x000029f6:    1c6d        m.      ADDS     r5,r5,#1
        0x000029f8:    2d3c        <-      CMP      r5,#0x3c
        0x000029fa:    dbed        ..      BLT      0x29d8 ; switch_my_act + 24
        0x000029fc:    e007        ..      B        0x2a0e ; switch_my_act + 78
        0x000029fe:    2001        .       MOVS     r0,#1
        0x00002a00:    f7fffec0    ....    BL       keyScan ; 0x2784
        0x00002a04:    b2c7        ..      UXTB     r7,r0
        0x00002a06:    f44f70fa    O..p    MOV      r0,#0x1f4
        0x00002a0a:    f7fefebd    ....    BL       delay_ms ; 0x1788
        0x00002a0e:    b127        '.      CBZ      r7,0x2a1a ; switch_my_act + 90
        0x00002a10:    2f01        ./      CMP      r7,#1
        0x00002a12:    d03c        <.      BEQ      0x2a8e ; switch_my_act + 206
        0x00002a14:    2f02        ./      CMP      r7,#2
        0x00002a16:    d14d        M.      BNE      0x2ab4 ; switch_my_act + 244
        0x00002a18:    e01c        ..      B        0x2a54 ; switch_my_act + 148
        0x00002a1a:    f64f70ff    O..p    MOV      r0,#0xffff
        0x00002a1e:    9000        ..      STR      r0,[sp,#0]
        0x00002a20:    f8d4c004    ....    LDR      r12,[r4,#4]
        0x00002a24:    f10c030e    ....    ADD      r3,r12,#0xe
        0x00002a28:    f8d4c000    ....    LDR      r12,[r4,#0]
        0x00002a2c:    f10c020e    ....    ADD      r2,r12,#0xe
        0x00002a30:    f8d4c004    ....    LDR      r12,[r4,#4]
        0x00002a34:    f1ac010e    ....    SUB      r1,r12,#0xe
        0x00002a38:    f8d4c000    ....    LDR      r12,[r4,#0]
        0x00002a3c:    f1ac000e    ....    SUB      r0,r12,#0xe
        0x00002a40:    f7fdfd1e    ....    BL       LCD_Fill ; 0x480
        0x00002a44:    6820         h      LDR      r0,[r4,#0]
        0x00002a46:    300a        .0      ADDS     r0,r0,#0xa
        0x00002a48:    28e0        .(      CMP      r0,#0xe0
        0x00002a4a:    da02        ..      BGE      0x2a52 ; switch_my_act + 146
        0x00002a4c:    6820         h      LDR      r0,[r4,#0]
        0x00002a4e:    300a        .0      ADDS     r0,r0,#0xa
        0x00002a50:    6020         `      STR      r0,[r4,#0]
        0x00002a52:    e030        0.      B        0x2ab6 ; switch_my_act + 246
        0x00002a54:    f64f70ff    O..p    MOV      r0,#0xffff
        0x00002a58:    9000        ..      STR      r0,[sp,#0]
        0x00002a5a:    f8d4c004    ....    LDR      r12,[r4,#4]
        0x00002a5e:    f10c030e    ....    ADD      r3,r12,#0xe
        0x00002a62:    f8d4c000    ....    LDR      r12,[r4,#0]
        0x00002a66:    f10c020e    ....    ADD      r2,r12,#0xe
        0x00002a6a:    f8d4c004    ....    LDR      r12,[r4,#4]
        0x00002a6e:    f1ac010e    ....    SUB      r1,r12,#0xe
        0x00002a72:    f8d4c000    ....    LDR      r12,[r4,#0]
        0x00002a76:    f1ac000e    ....    SUB      r0,r12,#0xe
        0x00002a7a:    f7fdfd01    ....    BL       LCD_Fill ; 0x480
        0x00002a7e:    6820         h      LDR      r0,[r4,#0]
        0x00002a80:    380a        .8      SUBS     r0,r0,#0xa
        0x00002a82:    2810        .(      CMP      r0,#0x10
        0x00002a84:    dd02        ..      BLE      0x2a8c ; switch_my_act + 204
        0x00002a86:    6820         h      LDR      r0,[r4,#0]
        0x00002a88:    380a        .8      SUBS     r0,r0,#0xa
        0x00002a8a:    6020         `      STR      r0,[r4,#0]
        0x00002a8c:    e013        ..      B        0x2ab6 ; switch_my_act + 246
        0x00002a8e:    2500        .%      MOVS     r5,#0
        0x00002a90:    e00c        ..      B        0x2aac ; switch_my_act + 236
        0x00002a92:    f8560035    V.5.    LDR      r0,[r6,r5,LSL #3]
        0x00002a96:    b940        @.      CBNZ     r0,0x2aaa ; switch_my_act + 234
        0x00002a98:    6820         h      LDR      r0,[r4,#0]
        0x00002a9a:    f8460035    F.5.    STR      r0,[r6,r5,LSL #3]
        0x00002a9e:    6860        `h      LDR      r0,[r4,#4]
        0x00002aa0:    380f        .8      SUBS     r0,r0,#0xf
        0x00002aa2:    eb0601c5    ....    ADD      r1,r6,r5,LSL #3
        0x00002aa6:    6048        H`      STR      r0,[r1,#4]
        0x00002aa8:    e002        ..      B        0x2ab0 ; switch_my_act + 240
        0x00002aaa:    1c6d        m.      ADDS     r5,r5,#1
        0x00002aac:    2d14        .-      CMP      r5,#0x14
        0x00002aae:    dbf0        ..      BLT      0x2a92 ; switch_my_act + 210
        0x00002ab0:    bf00        ..      NOP      
        0x00002ab2:    e000        ..      B        0x2ab6 ; switch_my_act + 246
        0x00002ab4:    bf00        ..      NOP      
        0x00002ab6:    bf00        ..      NOP      
        0x00002ab8:    bdf8        ..      POP      {r3-r7,pc}
    i.uart_init
    uart_init
        0x00002aba:    e92d41f0    -..A    PUSH     {r4-r8,lr}
        0x00002abe:    4604        .F      MOV      r4,r0
        0x00002ac0:    460d        .F      MOV      r5,r1
        0x00002ac2:    e9dd7c07    ...|    LDRD     r7,r12,[sp,#0x1c]
        0x00002ac6:    9e06        ..      LDR      r6,[sp,#0x18]
        0x00002ac8:    2100        .!      MOVS     r1,#0
        0x00002aca:    b10d        ..      CBZ      r5,0x2ad0 ; uart_init + 22
        0x00002acc:    f0410101    A...    ORR      r1,r1,#1
        0x00002ad0:    b10a        ..      CBZ      r2,0x2ad6 ; uart_init + 28
        0x00002ad2:    f0410102    A...    ORR      r1,r1,#2
        0x00002ad6:    b10b        ..      CBZ      r3,0x2adc ; uart_init + 34
        0x00002ad8:    f0410104    A...    ORR      r1,r1,#4
        0x00002adc:    b10e        ..      CBZ      r6,0x2ae2 ; uart_init + 40
        0x00002ade:    f0410108    A...    ORR      r1,r1,#8
        0x00002ae2:    b10f        ..      CBZ      r7,0x2ae8 ; uart_init + 46
        0x00002ae4:    f0410110    A...    ORR      r1,r1,#0x10
        0x00002ae8:    f1bc0f00    ....    CMP      r12,#0
        0x00002aec:    d001        ..      BEQ      0x2af2 ; uart_init + 56
        0x00002aee:    f0410120    A. .    ORR      r1,r1,#0x20
        0x00002af2:    2000        .       MOVS     r0,#0
        0x00002af4:    f04f4880    O..H    MOV      r8,#0x40000000
        0x00002af8:    f8c80008    ....    STR      r0,[r8,#8]
        0x00002afc:    4640        @F      MOV      r0,r8
        0x00002afe:    6104        .a      STR      r4,[r0,#0x10]
        0x00002b00:    6081        .`      STR      r1,[r0,#8]
        0x00002b02:    6840        @h      LDR      r0,[r0,#4]
        0x00002b04:    f000000c    ....    AND      r0,r0,#0xc
        0x00002b08:    b110        ..      CBZ      r0,0x2b10 ; uart_init + 86
        0x00002b0a:    2001        .       MOVS     r0,#1
        0x00002b0c:    e8bd81f0    ....    POP      {r4-r8,pc}
        0x00002b10:    2000        .       MOVS     r0,#0
        0x00002b12:    e7fb        ..      B        0x2b0c ; uart_init + 82
    i.update_enemy_buttles
    update_enemy_buttles
        0x00002b14:    b5f8        ..      PUSH     {r3-r7,lr}
        0x00002b16:    4605        .F      MOV      r5,r0
        0x00002b18:    460e        .F      MOV      r6,r1
        0x00002b1a:    2400        .$      MOVS     r4,#0
        0x00002b1c:    e02a        *.      B        0x2b74 ; update_enemy_buttles + 96
        0x00002b1e:    f8550034    U.4.    LDR      r0,[r5,r4,LSL #3]
        0x00002b22:    b330        0.      CBZ      r0,0x2b72 ; update_enemy_buttles + 94
        0x00002b24:    f64f70ff    O..p    MOV      r0,#0xffff
        0x00002b28:    eb0507c4    ....    ADD      r7,r5,r4,LSL #3
        0x00002b2c:    9000        ..      STR      r0,[sp,#0]
        0x00002b2e:    687f        .h      LDR      r7,[r7,#4]
        0x00002b30:    1c7b        {.      ADDS     r3,r7,#1
        0x00002b32:    f8557034    U.4p    LDR      r7,[r5,r4,LSL #3]
        0x00002b36:    1c7a        z.      ADDS     r2,r7,#1
        0x00002b38:    eb0507c4    ....    ADD      r7,r5,r4,LSL #3
        0x00002b3c:    687f        .h      LDR      r7,[r7,#4]
        0x00002b3e:    1e79        y.      SUBS     r1,r7,#1
        0x00002b40:    f8557034    U.4p    LDR      r7,[r5,r4,LSL #3]
        0x00002b44:    1e78        x.      SUBS     r0,r7,#1
        0x00002b46:    f7fdfc9b    ....    BL       LCD_Fill ; 0x480
        0x00002b4a:    eb0500c4    ....    ADD      r0,r5,r4,LSL #3
        0x00002b4e:    6840        @h      LDR      r0,[r0,#4]
        0x00002b50:    4430        0D      ADD      r0,r0,r6
        0x00002b52:    1d00        ..      ADDS     r0,r0,#4
        0x00002b54:    eb0501c4    ....    ADD      r1,r5,r4,LSL #3
        0x00002b58:    6048        H`      STR      r0,[r1,#4]
        0x00002b5a:    eb0500c4    ....    ADD      r0,r5,r4,LSL #3
        0x00002b5e:    6840        @h      LDR      r0,[r0,#4]
        0x00002b60:    f5b07f9f    ....    CMP      r0,#0x13e
        0x00002b64:    dd05        ..      BLE      0x2b72 ; update_enemy_buttles + 94
        0x00002b66:    2000        .       MOVS     r0,#0
        0x00002b68:    f8450034    E.4.    STR      r0,[r5,r4,LSL #3]
        0x00002b6c:    eb0501c4    ....    ADD      r1,r5,r4,LSL #3
        0x00002b70:    6048        H`      STR      r0,[r1,#4]
        0x00002b72:    1c64        d.      ADDS     r4,r4,#1
        0x00002b74:    2c32        2,      CMP      r4,#0x32
        0x00002b76:    dbd2        ..      BLT      0x2b1e ; update_enemy_buttles + 10
        0x00002b78:    bdf8        ..      POP      {r3-r7,pc}
    i.update_enemy_planes
    update_enemy_planes
        0x00002b7a:    b5f8        ..      PUSH     {r3-r7,lr}
        0x00002b7c:    4605        .F      MOV      r5,r0
        0x00002b7e:    460e        .F      MOV      r6,r1
        0x00002b80:    2400        .$      MOVS     r4,#0
        0x00002b82:    e02e        ..      B        0x2be2 ; update_enemy_planes + 104
        0x00002b84:    f8550034    U.4.    LDR      r0,[r5,r4,LSL #3]
        0x00002b88:    b350        P.      CBZ      r0,0x2be0 ; update_enemy_planes + 102
        0x00002b8a:    f64f70ff    O..p    MOV      r0,#0xffff
        0x00002b8e:    eb0507c4    ....    ADD      r7,r5,r4,LSL #3
        0x00002b92:    9000        ..      STR      r0,[sp,#0]
        0x00002b94:    687f        .h      LDR      r7,[r7,#4]
        0x00002b96:    f107030e    ....    ADD      r3,r7,#0xe
        0x00002b9a:    f8557034    U.4p    LDR      r7,[r5,r4,LSL #3]
        0x00002b9e:    f107020e    ....    ADD      r2,r7,#0xe
        0x00002ba2:    eb0507c4    ....    ADD      r7,r5,r4,LSL #3
        0x00002ba6:    687f        .h      LDR      r7,[r7,#4]
        0x00002ba8:    f1a7010e    ....    SUB      r1,r7,#0xe
        0x00002bac:    f8557034    U.4p    LDR      r7,[r5,r4,LSL #3]
        0x00002bb0:    f1a7000e    ....    SUB      r0,r7,#0xe
        0x00002bb4:    f7fdfc64    ..d.    BL       LCD_Fill ; 0x480
        0x00002bb8:    eb0500c4    ....    ADD      r0,r5,r4,LSL #3
        0x00002bbc:    6840        @h      LDR      r0,[r0,#4]
        0x00002bbe:    4430        0D      ADD      r0,r0,r6
        0x00002bc0:    1cc0        ..      ADDS     r0,r0,#3
        0x00002bc2:    eb0501c4    ....    ADD      r1,r5,r4,LSL #3
        0x00002bc6:    6048        H`      STR      r0,[r1,#4]
        0x00002bc8:    eb0500c4    ....    ADD      r0,r5,r4,LSL #3
        0x00002bcc:    6840        @h      LDR      r0,[r0,#4]
        0x00002bce:    f5b07f8c    ....    CMP      r0,#0x118
        0x00002bd2:    dd05        ..      BLE      0x2be0 ; update_enemy_planes + 102
        0x00002bd4:    2000        .       MOVS     r0,#0
        0x00002bd6:    f8450034    E.4.    STR      r0,[r5,r4,LSL #3]
        0x00002bda:    eb0501c4    ....    ADD      r1,r5,r4,LSL #3
        0x00002bde:    6048        H`      STR      r0,[r1,#4]
        0x00002be0:    1c64        d.      ADDS     r4,r4,#1
        0x00002be2:    2c05        .,      CMP      r4,#5
        0x00002be4:    dbce        ..      BLT      0x2b84 ; update_enemy_planes + 10
        0x00002be6:    bdf8        ..      POP      {r3-r7,pc}
    i.update_my_buttles
    update_my_buttles
        0x00002be8:    b5f8        ..      PUSH     {r3-r7,lr}
        0x00002bea:    4605        .F      MOV      r5,r0
        0x00002bec:    2400        .$      MOVS     r4,#0
        0x00002bee:    e028        (.      B        0x2c42 ; update_my_buttles + 90
        0x00002bf0:    f8550034    U.4.    LDR      r0,[r5,r4,LSL #3]
        0x00002bf4:    b320         .      CBZ      r0,0x2c40 ; update_my_buttles + 88
        0x00002bf6:    f64f70ff    O..p    MOV      r0,#0xffff
        0x00002bfa:    eb0506c4    ....    ADD      r6,r5,r4,LSL #3
        0x00002bfe:    9000        ..      STR      r0,[sp,#0]
        0x00002c00:    6876        vh      LDR      r6,[r6,#4]
        0x00002c02:    1c73        s.      ADDS     r3,r6,#1
        0x00002c04:    f8556034    U.4`    LDR      r6,[r5,r4,LSL #3]
        0x00002c08:    1c72        r.      ADDS     r2,r6,#1
        0x00002c0a:    eb0506c4    ....    ADD      r6,r5,r4,LSL #3
        0x00002c0e:    6876        vh      LDR      r6,[r6,#4]
        0x00002c10:    1e71        q.      SUBS     r1,r6,#1
        0x00002c12:    f8556034    U.4`    LDR      r6,[r5,r4,LSL #3]
        0x00002c16:    1e70        p.      SUBS     r0,r6,#1
        0x00002c18:    f7fdfc32    ..2.    BL       LCD_Fill ; 0x480
        0x00002c1c:    eb0500c4    ....    ADD      r0,r5,r4,LSL #3
        0x00002c20:    6840        @h      LDR      r0,[r0,#4]
        0x00002c22:    380a        .8      SUBS     r0,r0,#0xa
        0x00002c24:    eb0501c4    ....    ADD      r1,r5,r4,LSL #3
        0x00002c28:    6048        H`      STR      r0,[r1,#4]
        0x00002c2a:    eb0500c4    ....    ADD      r0,r5,r4,LSL #3
        0x00002c2e:    6840        @h      LDR      r0,[r0,#4]
        0x00002c30:    2825        %(      CMP      r0,#0x25
        0x00002c32:    da05        ..      BGE      0x2c40 ; update_my_buttles + 88
        0x00002c34:    2000        .       MOVS     r0,#0
        0x00002c36:    f8450034    E.4.    STR      r0,[r5,r4,LSL #3]
        0x00002c3a:    eb0501c4    ....    ADD      r1,r5,r4,LSL #3
        0x00002c3e:    6048        H`      STR      r0,[r1,#4]
        0x00002c40:    1c64        d.      ADDS     r4,r4,#1
        0x00002c42:    2c14        .,      CMP      r4,#0x14
        0x00002c44:    dbd4        ..      BLT      0x2bf0 ; update_my_buttles + 8
        0x00002c46:    bdf8        ..      POP      {r3-r7,pc}
    $d.realdata
    .constdata
    asc2_1206
        0x00002c48:    00000000    ....    DCD    0
        0x00002c4c:    00000000    ....    DCD    0
        0x00002c50:    00000000    ....    DCD    0
        0x00002c54:    00000000    ....    DCD    0
        0x00002c58:    0000403f    ?@..    DCD    16447
        0x00002c5c:    00000000    ....    DCD    0
        0x00002c60:    00300000    ..0.    DCD    3145728
        0x00002c64:    00300040    @.0.    DCD    3145792
        0x00002c68:    00000040    @...    DCD    64
        0x00002c6c:    c00b0009    ....    DCD    3221946377
        0x00002c70:    c00b003d    =...    DCD    3221946429
        0x00002c74:    0009003d    =...    DCD    589885
        0x00002c78:    4024c018    ..$@    DCD    1076150296
        0x00002c7c:    4022e07f    .."@    DCD    1076027519
        0x00002c80:    00008031    1...    DCD    32817
        0x00002c84:    c0240018    ..$.    DCD    3223584792
        0x00002c88:    800d001b    ....    DCD    2148335643
        0x00002c8c:    80014032    2@..    DCD    2147565618
        0x00002c90:    401c8003    ...@    DCD    1075609603
        0x00002c94:    801c4027    '@..    DCD    2149335079
        0x00002c98:    40004007    .@.@    DCD    1073758215
        0x00002c9c:    00600010    ..`.    DCD    6291472
        0x00002ca0:    00000000    ....    DCD    0
        0x00002ca4:    00000000    ....    DCD    0
        0x00002ca8:    00000000    ....    DCD    0
        0x00002cac:    801f0000    ....    DCD    2149515264
        0x00002cb0:    20404020     @@     DCD    541081632
        0x00002cb4:    20400000    ..@     DCD    541065216
        0x00002cb8:    801f4020     @..    DCD    2149531680
        0x00002cbc:    00000000    ....    DCD    0
        0x00002cc0:    00060009    ....    DCD    393225
        0x00002cc4:    0006801f    ....    DCD    426015
        0x00002cc8:    00000009    ....    DCD    9
        0x00002ccc:    00040004    ....    DCD    262148
        0x00002cd0:    0004803f    ?...    DCD    294975
        0x00002cd4:    00000004    ....    DCD    4
        0x00002cd8:    60001000    ...`    DCD    1610616832
        0x00002cdc:    00000000    ....    DCD    0
        0x00002ce0:    00000000    ....    DCD    0
        0x00002ce4:    00040004    ....    DCD    262148
        0x00002ce8:    00040004    ....    DCD    262148
        0x00002cec:    00000004    ....    DCD    4
        0x00002cf0:    40000000    ...@    DCD    1073741824
        0x00002cf4:    00000000    ....    DCD    0
        0x00002cf8:    00000000    ....    DCD    0
        0x00002cfc:    c0012000    . ..    DCD    3221299200
        0x00002d00:    00380006    ..8.    DCD    3670022
        0x00002d04:    00000040    @...    DCD    64
        0x00002d08:    4020801f    .. @    DCD    1075871775
        0x00002d0c:    40204020     @ @    DCD    1075855392
        0x00002d10:    0000801f    ....    DCD    32799
        0x00002d14:    40100000    ...@    DCD    1074790400
        0x00002d18:    4000c03f    ?..@    DCD    1073791039
        0x00002d1c:    00000000    ....    DCD    0
        0x00002d20:    4021c018    ..!@    DCD    1075953688
        0x00002d24:    40244022    "@$@    DCD    1076117538
        0x00002d28:    00004018    .@..    DCD    16408
        0x00002d2c:    40208010    .. @    DCD    1075871760
        0x00002d30:    40244024    $@$@    DCD    1076117540
        0x00002d34:    0000801b    ....    DCD    32795
        0x00002d38:    000d0002    ....    DCD    851970
        0x00002d3c:    c03f0011    ..?.    DCD    3225354257
        0x00002d40:    00004001    .@..    DCD    16385
        0x00002d44:    4024803c    <.$@    DCD    1076133948
        0x00002d48:    40244024    $@$@    DCD    1076117540
        0x00002d4c:    00008023    #...    DCD    32803
        0x00002d50:    4024801f    ..$@    DCD    1076133919
        0x00002d54:    40344024    $@4@    DCD    1077166116
        0x00002d58:    00008003    ....    DCD    32771
        0x00002d5c:    00200030    0. .    DCD    2097200
        0x00002d60:    0038c027    '.8.    DCD    3719207
        0x00002d64:    00000020     ...    DCD    32
        0x00002d68:    4024801b    ..$@    DCD    1076133915
        0x00002d6c:    40244024    $@$@    DCD    1076117540
        0x00002d70:    0000801b    ....    DCD    32795
        0x00002d74:    c022001c    ..".    DCD    3223453724
        0x00002d78:    40224022    "@"@    DCD    1075986466
        0x00002d7c:    0000801f    ....    DCD    32799
        0x00002d80:    00000000    ....    DCD    0
        0x00002d84:    00004008    .@..    DCD    16392
        0x00002d88:    00000000    ....    DCD    0
        0x00002d8c:    00000000    ....    DCD    0
        0x00002d90:    00006004    .`..    DCD    24580
        0x00002d94:    00000000    ....    DCD    0
        0x00002d98:    00040000    ....    DCD    262144
        0x00002d9c:    0011000a    ....    DCD    1114122
        0x00002da0:    40408020     .@@    DCD    1077968928
        0x00002da4:    00090009    ....    DCD    589833
        0x00002da8:    00090009    ....    DCD    589833
        0x00002dac:    00000009    ....    DCD    9
        0x00002db0:    40400000    ..@@    DCD    1077936128
        0x00002db4:    00118020     ...    DCD    1146912
        0x00002db8:    0004000a    ....    DCD    262154
        0x00002dbc:    00200018    .. .    DCD    2097176
        0x00002dc0:    00244023    #@$.    DCD    2375715
        0x00002dc4:    00000018    ....    DCD    24
        0x00002dc8:    4020801f    .. @    DCD    1075871775
        0x00002dcc:    40294027    '@)@    DCD    1076445223
        0x00002dd0:    0000401f    .@..    DCD    16415
        0x00002dd4:    c0074000    .@..    DCD    3221700608
        0x00002dd8:    000f0039    9...    DCD    983097
        0x00002ddc:    4000c001    ...@    DCD    1073790977
        0x00002de0:    c03f4020     @?.    DCD    3225370656
        0x00002de4:    40244024    $@$@    DCD    1076117540
        0x00002de8:    0000801b    ....    DCD    32795
        0x00002dec:    4020801f    .. @    DCD    1075871775
        0x00002df0:    40204020     @ @    DCD    1075855392
        0x00002df4:    00008030    0...    DCD    32816
        0x00002df8:    c03f4020     @?.    DCD    3225370656
        0x00002dfc:    40204020     @ @    DCD    1075855392
        0x00002e00:    0000801f    ....    DCD    32799
        0x00002e04:    c03f4020     @?.    DCD    3225370656
        0x00002e08:    402e4024    $@.@    DCD    1076772900
        0x00002e0c:    0000c030    0...    DCD    49200
        0x00002e10:    c03f4020     @?.    DCD    3225370656
        0x00002e14:    002e4024    $@..    DCD    3031076
        0x00002e18:    00000030    0...    DCD    48
        0x00002e1c:    8010000f    ....    DCD    2148532239
        0x00002e20:    40224020     @"@    DCD    1075986464
        0x00002e24:    00028033    3...    DCD    163891
        0x00002e28:    c03f4020     @?.    DCD    3225370656
        0x00002e2c:    00040004    ....    DCD    262148
        0x00002e30:    4020c03f    ?. @    DCD    1075888191
        0x00002e34:    40204020     @ @    DCD    1075855392
        0x00002e38:    4020c03f    ?. @    DCD    1075888191
        0x00002e3c:    00004020     @..    DCD    16416
        0x00002e40:    20206000    .`      DCD    538992640
        0x00002e44:    c03f2020      ?.    DCD    3225362464
        0x00002e48:    00200020     . .    DCD    2097184
        0x00002e4c:    c03f4020     @?.    DCD    3225370656
        0x00002e50:    000b4024    $@..    DCD    737316
        0x00002e54:    4020c030    0. @    DCD    1075888176
        0x00002e58:    c03f4020     @?.    DCD    3225370656
        0x00002e5c:    40004020     @.@    DCD    1073758240
        0x00002e60:    c0004000    .@..    DCD    3221241856
        0x00002e64:    003cc03f    ?.<.    DCD    3981375
        0x00002e68:    003cc003    ..<.    DCD    3981315
        0x00002e6c:    0000c03f    ?...    DCD    49215
        0x00002e70:    c03f4020     @?.    DCD    3225370656
        0x00002e74:    0023400c    .@#.    DCD    2310156
        0x00002e78:    0020c03f    ?. .    DCD    2146367
        0x00002e7c:    4020801f    .. @    DCD    1075871775
        0x00002e80:    40204020     @ @    DCD    1075855392
        0x00002e84:    0000801f    ....    DCD    32799
        0x00002e88:    c03f4020     @?.    DCD    3225370656
        0x00002e8c:    00244024    $@$.    DCD    2375716
        0x00002e90:    00000018    ....    DCD    24
        0x00002e94:    4021801f    ..!@    DCD    1075937311
        0x00002e98:    e0204021    !@ .    DCD    3760209953
        0x00002e9c:    0000a01f    ....    DCD    40991
        0x00002ea0:    c03f4020     @?.    DCD    3225370656
        0x00002ea4:    00264024    $@&.    DCD    2506788
        0x00002ea8:    4000c019    ...@    DCD    1073791001
        0x00002eac:    4024c018    ..$@    DCD    1076150296
        0x00002eb0:    40224024    $@"@    DCD    1075986468
        0x00002eb4:    00008031    1...    DCD    32817
        0x00002eb8:    40200030    0. @    DCD    1075839024
        0x00002ebc:    4020c03f    ?. @    DCD    1075888191
        0x00002ec0:    00000030    0...    DCD    48
        0x00002ec4:    803f0020     .?.    DCD    2151612448
        0x00002ec8:    40004000    .@.@    DCD    1073758208
        0x00002ecc:    0020803f    ?. .    DCD    2129983
        0x00002ed0:    003e0020     .>.    DCD    4063264
        0x00002ed4:    0007c001    ....    DCD    507905
        0x00002ed8:    00200038    8. .    DCD    2097208
        0x00002edc:    c0070038    8...    DCD    3221684280
        0x00002ee0:    c007003c    <...    DCD    3221684284
        0x00002ee4:    00000038    8...    DCD    56
        0x00002ee8:    c0394020     @9.    DCD    3224977440
        0x00002eec:    c0390006    ..9.    DCD    3224961030
        0x00002ef0:    00004020     @..    DCD    16416
        0x00002ef4:    40380020     .8@    DCD    1077411872
        0x00002ef8:    4038c007    ..8@    DCD    1077460999
        0x00002efc:    00000020     ...    DCD    32
        0x00002f00:    c0214030    0@!.    DCD    3223404592
        0x00002f04:    40384026    &@8@    DCD    1077428262
        0x00002f08:    0000c020     ...    DCD    49184
        0x00002f0c:    00000000    ....    DCD    0
        0x00002f10:    2040e07f    ..@     DCD    541122687
        0x00002f14:    00002040    @ ..    DCD    8256
        0x00002f18:    00700000    ..p.    DCD    7340032
        0x00002f1c:    8003000c    ....    DCD    2147680268
        0x00002f20:    00004000    .@..    DCD    16384
        0x00002f24:    20400000    ..@     DCD    541065216
        0x00002f28:    e07f2040    @ ..    DCD    3766427712
        0x00002f2c:    00000000    ....    DCD    0
        0x00002f30:    00200000    .. .    DCD    2097152
        0x00002f34:    00200040    @. .    DCD    2097216
        0x00002f38:    00000000    ....    DCD    0
        0x00002f3c:    10001000    ....    DCD    268439552
        0x00002f40:    10001000    ....    DCD    268439552
        0x00002f44:    10001000    ....    DCD    268439552
        0x00002f48:    00000000    ....    DCD    0
        0x00002f4c:    00000040    @...    DCD    64
        0x00002f50:    00000000    ....    DCD    0
        0x00002f54:    80020000    ....    DCD    2147614720
        0x00002f58:    40054005    .@.@    DCD    1074085893
        0x00002f5c:    4000c003    ...@    DCD    1073790979
        0x00002f60:    c03f0020     .?.    DCD    3225354272
        0x00002f64:    40044004    .@.@    DCD    1074020356
        0x00002f68:    00008003    ....    DCD    32771
        0x00002f6c:    80030000    ....    DCD    2147680256
        0x00002f70:    40044004    .@.@    DCD    1074020356
        0x00002f74:    00004006    .@..    DCD    16390
        0x00002f78:    80030000    ....    DCD    2147680256
        0x00002f7c:    40244004    .@$@    DCD    1076117508
        0x00002f80:    4000c03f    ?..@    DCD    1073791039
        0x00002f84:    80030000    ....    DCD    2147680256
        0x00002f88:    40054005    .@.@    DCD    1074085893
        0x00002f8c:    00004003    .@..    DCD    16387
        0x00002f90:    40040000    ...@    DCD    1074003968
        0x00002f94:    4024c01f    ..$@    DCD    1076150303
        0x00002f98:    00204024    $@ .    DCD    2113572
        0x00002f9c:    e0020000    ....    DCD    3758227456
        0x00002fa0:    50055005    .P.P    DCD    1342525445
        0x00002fa4:    20045006    .P.     DCD    537153542
        0x00002fa8:    c03f4020     @?.    DCD    3225370656
        0x00002fac:    00044004    .@..    DCD    278532
        0x00002fb0:    4000c003    ...@    DCD    1073790979
        0x00002fb4:    40040000    ...@    DCD    1074003968
        0x00002fb8:    4000c027    '..@    DCD    1073791015
        0x00002fbc:    00000000    ....    DCD    0
        0x00002fc0:    10001000    ....    DCD    268439552
        0x00002fc4:    e0271004    ..'.    DCD    3760656388
        0x00002fc8:    00000000    ....    DCD    0
        0x00002fcc:    c03f4020     @?.    DCD    3225370656
        0x00002fd0:    00074001    .@..    DCD    475137
        0x00002fd4:    4004c004    ...@    DCD    1074053124
        0x00002fd8:    40204020     @ @    DCD    1075855392
        0x00002fdc:    4000c03f    ?..@    DCD    1073791039
        0x00002fe0:    00004000    .@..    DCD    16384
        0x00002fe4:    0004c007    ....    DCD    311303
        0x00002fe8:    0004c007    ....    DCD    311303
        0x00002fec:    0000c003    ....    DCD    49155
        0x00002ff0:    c0074004    .@..    DCD    3221700612
        0x00002ff4:    00044004    .@..    DCD    278532
        0x00002ff8:    4000c003    ...@    DCD    1073790979
        0x00002ffc:    80030000    ....    DCD    2147680256
        0x00003000:    40044004    .@.@    DCD    1074020356
        0x00003004:    00008003    ....    DCD    32771
        0x00003008:    f0071004    ....    DCD    4026994692
        0x0000300c:    40045004    .P.@    DCD    1074024452
        0x00003010:    00008003    ....    DCD    32771
        0x00003014:    80030000    ....    DCD    2147680256
        0x00003018:    50044004    .@.P    DCD    1342455812
        0x0000301c:    1000f007    ....    DCD    268496903
        0x00003020:    c0074004    .@..    DCD    3221700612
        0x00003024:    00044002    .@..    DCD    278530
        0x00003028:    00000004    ....    DCD    4
        0x0000302c:    40060000    ...@    DCD    1074135040
        0x00003030:    40054005    .@.@    DCD    1074085893
        0x00003034:    0000c004    ....    DCD    49156
        0x00003038:    00040000    ....    DCD    262144
        0x0000303c:    4004801f    ...@    DCD    1074036767
        0x00003040:    00004000    .@..    DCD    16384
        0x00003044:    80070004    ....    DCD    2147942404
        0x00003048:    40044000    .@.@    DCD    1074020352
        0x0000304c:    4000c007    ...@    DCD    1073790983
        0x00003050:    00070004    ....    DCD    458756
        0x00003054:    8001c004    ....    DCD    2147598340
        0x00003058:    00040006    ....    DCD    262150
        0x0000305c:    c0010006    ....    DCD    3221291014
        0x00003060:    c0010007    ....    DCD    3221291015
        0x00003064:    00000006    ....    DCD    6
        0x00003068:    c0064004    .@..    DCD    3221635076
        0x0000306c:    c0060001    ....    DCD    3221618689
        0x00003070:    00004004    .@..    DCD    16388
        0x00003074:    10071004    ....    DCD    268898308
        0x00003078:    8001e004    ....    DCD    2147606532
        0x0000307c:    00040006    ....    DCD    262150
        0x00003080:    40040000    ...@    DCD    1074003968
        0x00003084:    4006c005    ...@    DCD    1074184197
        0x00003088:    00004004    .@..    DCD    16388
        0x0000308c:    00000000    ....    DCD    0
        0x00003090:    e07b0004    ..{.    DCD    3766157316
        0x00003094:    00002040    @ ..    DCD    8256
        0x00003098:    00000000    ....    DCD    0
        0x0000309c:    f0ff0000    ....    DCD    4043243520
        0x000030a0:    00000000    ....    DCD    0
        0x000030a4:    20400000    ..@     DCD    541065216
        0x000030a8:    0004e07b    {...    DCD    319611
        0x000030ac:    00000000    ....    DCD    0
        0x000030b0:    00800040    @...    DCD    8388672
        0x000030b4:    00200040    @. .    DCD    2097216
        0x000030b8:    00400020     .@.    DCD    4194336
    asc2_1608
        0x000030bc:    00000000    ....    DCD    0
        0x000030c0:    00000000    ....    DCD    0
        0x000030c4:    00000000    ....    DCD    0
        0x000030c8:    00000000    ....    DCD    0
        0x000030cc:    00000000    ....    DCD    0
        0x000030d0:    cc1f0000    ....    DCD    3424583680
        0x000030d4:    00000c00    ....    DCD    3072
        0x000030d8:    00000000    ....    DCD    0
        0x000030dc:    00080000    ....    DCD    524288
        0x000030e0:    00600030    0.`.    DCD    6291504
        0x000030e4:    00300008    ..0.    DCD    3145736
        0x000030e8:    00000060    `...    DCD    96
        0x000030ec:    fc032002    . ..    DCD    4228063234
        0x000030f0:    2002201e    . .     DCD    537010206
        0x000030f4:    201efc03    ...     DCD    538901507
        0x000030f8:    00002002    . ..    DCD    8194
        0x000030fc:    180e0000    ....    DCD    403570688
        0x00003100:    ff3f0411    ..?.    DCD    4282319889
        0x00003104:    780c8410    ...x    DCD    2014086160
        0x00003108:    00000000    ....    DCD    0
        0x0000310c:    8410000f    ....    DCD    2215641103
        0x00003110:    c000380f    .8..    DCD    3221239823
        0x00003114:    84187807    .x..    DCD    2216196103
        0x00003118:    00007800    .x..    DCD    30720
        0x0000311c:    840f7800    .x..    DCD    2215606272
        0x00003120:    2411c410    ...$    DCD    605144080
        0x00003124:    e400980e    ....    DCD    3825244174
        0x00003128:    08008400    ....    DCD    134251520
        0x0000312c:    00680008    ..h.    DCD    6815752
        0x00003130:    00000070    p...    DCD    112
        0x00003134:    00000000    ....    DCD    0
        0x00003138:    00000000    ....    DCD    0
        0x0000313c:    00000000    ....    DCD    0
        0x00003140:    e0070000    ....    DCD    3758555136
        0x00003144:    04201818    .. .    DCD    69212184
        0x00003148:    00000240    @...    DCD    576
        0x0000314c:    02400000    ..@.    DCD    37748736
        0x00003150:    18180420     ...    DCD    404227104
        0x00003154:    0000e007    ....    DCD    57351
        0x00003158:    00000000    ....    DCD    0
        0x0000315c:    40024002    .@.@    DCD    1073889282
        0x00003160:    f00f8001    ....    DCD    4027547649
        0x00003164:    40028001    ...@    DCD    1073905665
        0x00003168:    00004002    .@..    DCD    16386
        0x0000316c:    80008000    ....    DCD    2147516416
        0x00003170:    f80f8000    ....    DCD    4161765376
        0x00003174:    80008000    ....    DCD    2147516416
        0x00003178:    00008000    ....    DCD    32768
        0x0000317c:    0d000100    ....    DCD    218104064
        0x00003180:    00000e00    ....    DCD    3584
        0x00003184:    00000000    ....    DCD    0
        0x00003188:    00000000    ....    DCD    0
        0x0000318c:    80000000    ....    DCD    2147483648
        0x00003190:    80008000    ....    DCD    2147516416
        0x00003194:    80008000    ....    DCD    2147516416
        0x00003198:    80008000    ....    DCD    2147516416
        0x0000319c:    0c000000    ....    DCD    201326592
        0x000031a0:    00000c00    ....    DCD    3072
        0x000031a4:    00000000    ....    DCD    0
        0x000031a8:    00000000    ....    DCD    0
        0x000031ac:    06000000    ....    DCD    100663296
        0x000031b0:    60001800    ...`    DCD    1610618880
        0x000031b4:    00068001    ....    DCD    425985
        0x000031b8:    00200018    .. .    DCD    2097176
        0x000031bc:    f0070000    ....    DCD    4026990592
        0x000031c0:    04100808    ....    DCD    68159496
        0x000031c4:    08080410    ....    DCD    134743056
        0x000031c8:    0000f007    ....    DCD    61447
        0x000031cc:    04080000    ....    DCD    67633152
        0x000031d0:    fc1f0408    ....    DCD    4229891080
        0x000031d4:    04000400    ....    DCD    67109888
        0x000031d8:    00000000    ....    DCD    0
        0x000031dc:    0c0e0000    ....    DCD    202244096
        0x000031e0:    24101410    ...$    DCD    605033488
        0x000031e4:    84114410    .D..    DCD    2215724048
        0x000031e8:    00000c0e    ....    DCD    3086
        0x000031ec:    180c0000    ....    DCD    403439616
        0x000031f0:    04110410    ....    DCD    68224016
        0x000031f4:    88120411    ....    DCD    2282882065
        0x000031f8:    0000700c    .p..    DCD    28684
        0x000031fc:    e0000000    ....    DCD    3758096384
        0x00003200:    24042003    . .$    DCD    604250115
        0x00003204:    fc1f2408    .$..    DCD    4229899272
        0x00003208:    00002400    .$..    DCD    9216
        0x0000320c:    981f0000    ....    DCD    2552168448
        0x00003210:    04118410    ....    DCD    68256784
        0x00003214:    88100411    ....    DCD    2282750993
        0x00003218:    00007010    .p..    DCD    28688
        0x0000321c:    f0070000    ....    DCD    4026990592
        0x00003220:    04118808    ....    DCD    68257800
        0x00003224:    88180411    ....    DCD    2283275281
        0x00003228:    00007000    .p..    DCD    28672
        0x0000322c:    001c0000    ....    DCD    1835008
        0x00003230:    fc100010    ....    DCD    4228907024
        0x00003234:    001c0013    ....    DCD    1835027
        0x00003238:    00000010    ....    DCD    16
        0x0000323c:    380e0000    ...8    DCD    940441600
        0x00003240:    84104411    .D..    DCD    2215658513
        0x00003244:    44118410    ...D    DCD    1141998608
        0x00003248:    0000380e    .8..    DCD    14350
        0x0000324c:    00070000    ....    DCD    458752
        0x00003250:    44108c08    ...D    DCD    1141935112
        0x00003254:    88084410    .D..    DCD    2282243088
        0x00003258:    0000f007    ....    DCD    61447
        0x0000325c:    00000000    ....    DCD    0
        0x00003260:    0c030000    ....    DCD    201523200
        0x00003264:    00000c03    ....    DCD    3075
        0x00003268:    00000000    ....    DCD    0
        0x0000326c:    00000000    ....    DCD    0
        0x00003270:    06010100    ....    DCD    100729088
        0x00003274:    00000000    ....    DCD    0
        0x00003278:    00000000    ....    DCD    0
        0x0000327c:    80000000    ....    DCD    2147483648
        0x00003280:    20024001    .@.     DCD    537018369
        0x00003284:    08081004    ....    DCD    134746116
        0x00003288:    00000410    ....    DCD    1040
        0x0000328c:    20022002    . .     DCD    537010178
        0x00003290:    20022002    . .     DCD    537010178
        0x00003294:    20022002    . .     DCD    537010178
        0x00003298:    00002002    . ..    DCD    8194
        0x0000329c:    04100000    ....    DCD    68157440
        0x000032a0:    10040808    ....    DCD    268699656
        0x000032a4:    40012002    . .@    DCD    1073815554
        0x000032a8:    00008000    ....    DCD    32768
        0x000032ac:    000e0000    ....    DCD    917504
        0x000032b0:    0c100012    ....    DCD    202375186
        0x000032b4:    80106c10    .l..    DCD    2148559888
        0x000032b8:    0000000f    ....    DCD    15
        0x000032bc:    180ce003    ....    DCD    403496963
        0x000032c0:    2414e413    ...$    DCD    605348883
        0x000032c4:    2808c417    ...(    DCD    671663127
        0x000032c8:    0000d007    ....    DCD    53255
        0x000032cc:    3c000400    ...<    DCD    1006633984
        0x000032d0:    401cc403    ...@    DCD    1075627011
        0x000032d4:    e4004007    .@..    DCD    3825221639
        0x000032d8:    04001c00    ....    DCD    67116032
        0x000032dc:    fc1f0410    ....    DCD    4229891088
        0x000032e0:    04110411    ....    DCD    68224017
        0x000032e4:    880e0411    ....    DCD    2282619921
        0x000032e8:    00007000    .p..    DCD    28672
        0x000032ec:    180ce003    ....    DCD    403496963
        0x000032f0:    04100410    ....    DCD    68158480
        0x000032f4:    08100410    ....    DCD    135267344
        0x000032f8:    0000101c    ....    DCD    4124
        0x000032fc:    fc1f0410    ....    DCD    4229891088
        0x00003300:    04100410    ....    DCD    68158480
        0x00003304:    08080410    ....    DCD    134743056
        0x00003308:    0000f007    ....    DCD    61447
        0x0000330c:    fc1f0410    ....    DCD    4229891088
        0x00003310:    04110411    ....    DCD    68224017
        0x00003314:    0410c417    ....    DCD    68207639
        0x00003318:    00001808    ....    DCD    6152
        0x0000331c:    fc1f0410    ....    DCD    4229891088
        0x00003320:    00110411    ....    DCD    1115153
        0x00003324:    0010c017    ....    DCD    1097751
        0x00003328:    00000008    ....    DCD    8
        0x0000332c:    180ce003    ....    DCD    403496963
        0x00003330:    04100410    ....    DCD    68158480
        0x00003334:    781c4410    .D.x    DCD    2015118352
        0x00003338:    00004000    .@..    DCD    16384
        0x0000333c:    fc1f0410    ....    DCD    4229891088
        0x00003340:    80008410    ....    DCD    2147517456
        0x00003344:    84108000    ....    DCD    2215673856
        0x00003348:    0410fc1f    ....    DCD    68221983
        0x0000334c:    04100000    ....    DCD    68157440
        0x00003350:    fc1f0410    ....    DCD    4229891088
        0x00003354:    04100410    ....    DCD    68158480
        0x00003358:    00000000    ....    DCD    0
        0x0000335c:    01000300    ....    DCD    16777984
        0x00003360:    01100110    ....    DCD    17826064
        0x00003364:    0010fe1f    ....    DCD    1113631
        0x00003368:    00000010    ....    DCD    16
        0x0000336c:    fc1f0410    ....    DCD    4229891088
        0x00003370:    80030411    ....    DCD    2147681297
        0x00003374:    1c186414    .d..    DCD    471360532
        0x00003378:    00000410    ....    DCD    1040
        0x0000337c:    fc1f0410    ....    DCD    4229891088
        0x00003380:    04000410    ....    DCD    67109904
        0x00003384:    04000400    ....    DCD    67109888
        0x00003388:    00000c00    ....    DCD    3072
        0x0000338c:    fc1f0410    ....    DCD    4229891088
        0x00003390:    fc00001f    ....    DCD    4227858463
        0x00003394:    fc1f001f    ....    DCD    4229890079
        0x00003398:    00000410    ....    DCD    1040
        0x0000339c:    fc1f0410    ....    DCD    4229891088
        0x000033a0:    0003040c    ....    DCD    197644
        0x000033a4:    1810e000    ....    DCD    403759104
        0x000033a8:    0010fc1f    ....    DCD    1113119
        0x000033ac:    0808f007    ....    DCD    134803463
        0x000033b0:    04100410    ....    DCD    68158480
        0x000033b4:    08080410    ....    DCD    134743056
        0x000033b8:    0000f007    ....    DCD    61447
        0x000033bc:    fc1f0410    ....    DCD    4229891088
        0x000033c0:    80108410    ....    DCD    2148566032
        0x000033c4:    80108010    ....    DCD    2148565008
        0x000033c8:    0000000f    ....    DCD    15
        0x000033cc:    1808f007    ....    DCD    403238919
        0x000033d0:    24102410    .$.$    DCD    605037584
        0x000033d4:    0a081c10    ....    DCD    168303632
        0x000033d8:    0000f207    ....    DCD    61959
        0x000033dc:    fc1f0410    ....    DCD    4229891088
        0x000033e0:    00110411    ....    DCD    1115153
        0x000033e4:    3011c011    ...0    DCD    806469649
        0x000033e8:    04000c0e    ....    DCD    67111950
        0x000033ec:    1c0e0000    ....    DCD    470679552
        0x000033f0:    84100411    ....    DCD    2215642129
        0x000033f4:    44108410    ...D    DCD    1141933072
        0x000033f8:    0000381c    .8..    DCD    14364
        0x000033fc:    00100018    ....    DCD    1048600
        0x00003400:    fc1f0410    ....    DCD    4229891088
        0x00003404:    00100410    ....    DCD    1049616
        0x00003408:    00000018    ....    DCD    24
        0x0000340c:    f81f0010    ....    DCD    4162781200
        0x00003410:    04000410    ....    DCD    67109904
        0x00003414:    04100400    ....    DCD    68158464
        0x00003418:    0010f81f    ....    DCD    1112095
        0x0000341c:    001e0010    ....    DCD    1966096
        0x00003420:    1c00e011    ....    DCD    469819409
        0x00003424:    80137000    .p..    DCD    2148757504
        0x00003428:    0010001c    ....    DCD    1048604
        0x0000342c:    3c10c01f    ...<    DCD    1007730719
        0x00003430:    001fe000    ....    DCD    2088960
        0x00003434:    3c10e000    ...<    DCD    1007738880
        0x00003438:    0000c01f    ....    DCD    49183
        0x0000343c:    0c180410    ....    DCD    202900496
        0x00003440:    c0013416    .4..    DCD    3221304342
        0x00003444:    3416c001    ...4    DCD    873906177
        0x00003448:    04100c18    ....    DCD    68160536
        0x0000344c:    001c0010    ....    DCD    1835024
        0x00003450:    fc000413    ....    DCD    4227859475
        0x00003454:    001c0413    ....    DCD    1836051
        0x00003458:    00000010    ....    DCD    16
        0x0000345c:    1c100408    ....    DCD    470811656
        0x00003460:    84106410    .d..    DCD    2215666704
        0x00003464:    041c0413    ....    DCD    68944915
        0x00003468:    00001810    ....    DCD    6160
        0x0000346c:    00000000    ....    DCD    0
        0x00003470:    fe7f0000    ....    DCD    4269735936
        0x00003474:    02400240    @.@.    DCD    37749312
        0x00003478:    00000240    @...    DCD    576
        0x0000347c:    00300000    ..0.    DCD    3145728
        0x00003480:    8003000c    ....    DCD    2147680268
        0x00003484:    1c006000    .`..    DCD    469786624
        0x00003488:    00000300    ....    DCD    768
        0x0000348c:    02400000    ..@.    DCD    37748736
        0x00003490:    02400240    @.@.    DCD    37749312
        0x00003494:    0000fe7f    ....    DCD    65151
        0x00003498:    00000000    ....    DCD    0
        0x0000349c:    00000000    ....    DCD    0
        0x000034a0:    00400020     .@.    DCD    4194336
        0x000034a4:    00400040    @.@.    DCD    4194368
        0x000034a8:    00000020     ...    DCD    32
        0x000034ac:    01000100    ....    DCD    16777472
        0x000034b0:    01000100    ....    DCD    16777472
        0x000034b4:    01000100    ....    DCD    16777472
        0x000034b8:    01000100    ....    DCD    16777472
        0x000034bc:    00400000    ..@.    DCD    4194304
        0x000034c0:    00200040    @. .    DCD    2097216
        0x000034c4:    00000000    ....    DCD    0
        0x000034c8:    00000000    ....    DCD    0
        0x000034cc:    98000000    ....    DCD    2550136832
        0x000034d0:    44012401    .$.D    DCD    1140925441
        0x000034d4:    44014401    .D.D    DCD    1140933633
        0x000034d8:    0400fc00    ....    DCD    67173376
        0x000034dc:    fc1f0010    ....    DCD    4229890064
        0x000034e0:    04018800    ....    DCD    67209216
        0x000034e4:    88000401    ....    DCD    2281702401
        0x000034e8:    00007000    .p..    DCD    28672
        0x000034ec:    70000000    ...p    DCD    1879048192
        0x000034f0:    04018800    ....    DCD    67209216
        0x000034f4:    04010401    ....    DCD    67175425
        0x000034f8:    00008800    ....    DCD    34816
        0x000034fc:    70000000    ...p    DCD    1879048192
        0x00003500:    04018800    ....    DCD    67209216
        0x00003504:    08110401    ....    DCD    135332865
        0x00003508:    0400fc1f    ....    DCD    67173407
        0x0000350c:    f8000000    ....    DCD    4160749568
        0x00003510:    44014401    .D.D    DCD    1140933633
        0x00003514:    44014401    .D.D    DCD    1140933633
        0x00003518:    0000c800    ....    DCD    51200
        0x0000351c:    04010000    ....    DCD    67174400
        0x00003520:    fc0f0401    ....    DCD    4228842497
        0x00003524:    04110411    ....    DCD    68224017
        0x00003528:    00180011    ....    DCD    1572881
        0x0000352c:    d6000000    ....    DCD    3590324224
        0x00003530:    29012901    .).)    DCD    687941889
        0x00003534:    c9012901    .)..    DCD    3372296449
        0x00003538:    00000601    ....    DCD    1537
        0x0000353c:    fc1f0410    ....    DCD    4229891088
        0x00003540:    00018400    ....    DCD    99328
        0x00003544:    04010001    ....    DCD    67174401
        0x00003548:    0400fc00    ....    DCD    67173376
        0x0000354c:    04010000    ....    DCD    67174400
        0x00003550:    fc190419    ....    DCD    4229497881
        0x00003554:    04000400    ....    DCD    67109888
        0x00003558:    00000000    ....    DCD    0
        0x0000355c:    03000000    ....    DCD    50331648
        0x00003560:    01010100    ....    DCD    16843008
        0x00003564:    fe190119    ....    DCD    4263051545
        0x00003568:    00000000    ....    DCD    0
        0x0000356c:    fc1f0410    ....    DCD    4229891088
        0x00003570:    40002400    .$.@    DCD    1073751040
        0x00003574:    0c01b401    ....    DCD    201438209
        0x00003578:    00000401    ....    DCD    1025
        0x0000357c:    04100000    ....    DCD    68157440
        0x00003580:    fc1f0410    ....    DCD    4229891088
        0x00003584:    04000400    ....    DCD    67109888
        0x00003588:    00000000    ....    DCD    0
        0x0000358c:    fc010401    ....    DCD    4227924993
        0x00003590:    00010401    ....    DCD    66561
        0x00003594:    0401fc01    ....    DCD    67238913
        0x00003598:    fc000001    ....    DCD    4227858433
        0x0000359c:    fc010401    ....    DCD    4227924993
        0x000035a0:    00018400    ....    DCD    99328
        0x000035a4:    04010001    ....    DCD    67174401
        0x000035a8:    0400fc00    ....    DCD    67173376
        0x000035ac:    f8000000    ....    DCD    4160749568
        0x000035b0:    04010401    ....    DCD    67175425
        0x000035b4:    04010401    ....    DCD    67175425
        0x000035b8:    0000f800    ....    DCD    63488
        0x000035bc:    ff010101    ....    DCD    4278255873
        0x000035c0:    04018500    ....    DCD    67208448
        0x000035c4:    88000401    ....    DCD    2281702401
        0x000035c8:    00007000    .p..    DCD    28672
        0x000035cc:    70000000    ...p    DCD    1879048192
        0x000035d0:    04018800    ....    DCD    67209216
        0x000035d4:    05010401    ....    DCD    83952641
        0x000035d8:    0100ff01    ....    DCD    16842497
        0x000035dc:    04010401    ....    DCD    67175425
        0x000035e0:    8400fc01    ....    DCD    2214657025
        0x000035e4:    00010401    ....    DCD    66561
        0x000035e8:    00008001    ....    DCD    32769
        0x000035ec:    cc000000    ....    DCD    3422552064
        0x000035f0:    24012401    .$.$    DCD    604054529
        0x000035f4:    24012401    .$.$    DCD    604054529
        0x000035f8:    00009801    ....    DCD    38913
        0x000035fc:    00010000    ....    DCD    65536
        0x00003600:    f8070001    ....    DCD    4161208321
        0x00003604:    04010401    ....    DCD    67175425
        0x00003608:    00000000    ....    DCD    0
        0x0000360c:    f8010001    ....    DCD    4160815105
        0x00003610:    04000400    ....    DCD    67109888
        0x00003614:    08010400    ....    DCD    134284288
        0x00003618:    0400fc01    ....    DCD    67173377
        0x0000361c:    80010001    ....    DCD    2147549185
        0x00003620:    0c007001    .p..    DCD    201355265
        0x00003624:    60011000    ...`    DCD    1610682368
        0x00003628:    00018001    ....    DCD    98305
        0x0000362c:    0c01f001    ....    DCD    201453569
        0x00003630:    c0013000    .0..    DCD    3221303296
        0x00003634:    0c013000    .0..    DCD    201404416
        0x00003638:    0001f001    ....    DCD    126977
        0x0000363c:    04010000    ....    DCD    67174400
        0x00003640:    74008c01    ...t    DCD    1946192897
        0x00003644:    8c017001    .p..    DCD    2348904449
        0x00003648:    00000401    ....    DCD    1025
        0x0000364c:    81010101    ....    DCD    2164326657
        0x00003650:    0e007101    .q..    DCD    234909953
        0x00003654:    60011800    ...`    DCD    1610684416
        0x00003658:    00018001    ....    DCD    98305
        0x0000365c:    84010000    ....    DCD    2214658048
        0x00003660:    34010c01    ...4    DCD    872483841
        0x00003664:    84014401    .D..    DCD    2214675457
        0x00003668:    00000c01    ....    DCD    3073
        0x0000366c:    00000000    ....    DCD    0
        0x00003670:    00000000    ....    DCD    0
        0x00003674:    fc3e0001    ..>.    DCD    4231921665
        0x00003678:    02400240    @.@.    DCD    37749312
        0x0000367c:    00000000    ....    DCD    0
        0x00003680:    00000000    ....    DCD    0
        0x00003684:    0000ffff    ....    DCD    65535
        0x00003688:    00000000    ....    DCD    0
        0x0000368c:    02400000    ..@.    DCD    37748736
        0x00003690:    fc3e0240    @.>.    DCD    4231922240
        0x00003694:    00000001    ....    DCD    1
        0x00003698:    00000000    ....    DCD    0
        0x0000369c:    00600000    ..`.    DCD    6291456
        0x000036a0:    00800080    ....    DCD    8388736
        0x000036a4:    00400040    @.@.    DCD    4194368
        0x000036a8:    00200020     . .    DCD    2097184
    asc2_2412
        0x000036ac:    00000000    ....    DCD    0
        0x000036b0:    00000000    ....    DCD    0
        0x000036b4:    00000000    ....    DCD    0
        0x000036b8:    00000000    ....    DCD    0
        0x000036bc:    00000000    ....    DCD    0
        0x000036c0:    00000000    ....    DCD    0
        0x000036c4:    00000000    ....    DCD    0
        0x000036c8:    00000000    ....    DCD    0
        0x000036cc:    00000000    ....    DCD    0
        0x000036d0:    00000000    ....    DCD    0
        0x000036d4:    00000000    ....    DCD    0
        0x000036d8:    00000000    ....    DCD    0
        0x000036dc:    0f000000    ....    DCD    251658240
        0x000036e0:    fe0f3880    .8..    DCD    4262410368
        0x000036e4:    38800f38    8..8    DCD    947916600
        0x000036e8:    00000000    ....    DCD    0
        0x000036ec:    00000000    ....    DCD    0
        0x000036f0:    00000000    ....    DCD    0
        0x000036f4:    00000000    ....    DCD    0
        0x000036f8:    00010000    ....    DCD    65536
        0x000036fc:    00000600    ....    DCD    1536
        0x00003700:    3800000c    ...8    DCD    939524108
        0x00003704:    00310000    ..1.    DCD    3211264
        0x00003708:    00000600    ....    DCD    1536
        0x0000370c:    3800000c    ...8    DCD    939524108
        0x00003710:    00300000    ..0.    DCD    3145728
        0x00003714:    00000000    ....    DCD    0
        0x00003718:    00000000    ....    DCD    0
        0x0000371c:    67008061    a..g    DCD    1728086113
        0x00003720:    80f907f8    ....    DCD    2163804152
        0x00003724:    00806100    .a..    DCD    8413440
        0x00003728:    61008061    a..a    DCD    1627422817
        0x0000372c:    80610080    ..a.    DCD    2153840768
        0x00003730:    07f86700    .g..    DCD    133719808
        0x00003734:    610080f9    ...a    DCD    1627422969
        0x00003738:    00000080    ....    DCD    128
        0x0000373c:    00000000    ....    DCD    0
        0x00003740:    c0010000    ....    DCD    3221291008
        0x00003744:    f0e003e0    ....    DCD    4041212896
        0x00003748:    04083006    .0..    DCD    67645446
        0x0000374c:    ff1f0818    ....    DCD    4280223768
        0x00003750:    080e04fe    ....    DCD    135136510
        0x00003754:    03f08707    ....    DCD    66094855
        0x00003758:    0000e081    ....    DCD    57473
        0x0000375c:    00000000    ....    DCD    0
        0x00003760:    0600f001    ....    DCD    100724737
        0x00003764:    0404000c    ....    DCD    67371020
        0x00003768:    700c0608    ...p    DCD    1879836168
        0x0000376c:    00c0f901    ....    DCD    12646657
        0x00003770:    3b00000e    ...;    DCD    989855758
        0x00003774:    18ec00e0    ....    DCD    418119904
        0x00003778:    04080807    ....    DCD    67635207
        0x0000377c:    0300180c    ....    DCD    50337804
        0x00003780:    000000e0    ....    DCD    224
        0x00003784:    00e00100    ....    DCD    14680320
        0x00003788:    f803f007    ....    DCD    4161007623
        0x0000378c:    081c0418    ....    DCD    136053784
        0x00003790:    07081704    ....    DCD    117970692
        0x00003794:    c003d0e1    ....    DCD    3221475553
        0x00003798:    b02300e0    ..#.    DCD    2955084000
        0x0000379c:    00083c00    .<..    DCD    539648
        0x000037a0:    00000820     ...    DCD    2080
        0x000037a4:    00000010    ....    DCD    16
        0x000037a8:    01000000    ....    DCD    16777216
        0x000037ac:    00310000    ..1.    DCD    3211264
        0x000037b0:    00003200    .2..    DCD    12800
        0x000037b4:    0000001c    ....    DCD    28
        0x000037b8:    00000000    ....    DCD    0
        0x000037bc:    00000000    ....    DCD    0
        0x000037c0:    00000000    ....    DCD    0
        0x000037c4:    00000000    ....    DCD    0
        0x000037c8:    00000000    ....    DCD    0
        0x000037cc:    00000000    ....    DCD    0
        0x000037d0:    00000000    ....    DCD    0
        0x000037d4:    00000000    ....    DCD    0
        0x000037d8:    00000000    ....    DCD    0
        0x000037dc:    ff01007f    ....    DCD    4278255743
        0x000037e0:    f08007c0    ....    DCD    4034922432
        0x000037e4:    1018000c    ....    DCD    270008332
        0x000037e8:    00200400    .. .    DCD    2098176
        0x000037ec:    00000002    ....    DCD    2
        0x000037f0:    20000000    ...     DCD    536870912
        0x000037f4:    00100200    ....    DCD    1049088
        0x000037f8:    18000c04    ....    DCD    402656260
        0x000037fc:    01f08007    ....    DCD    32538631
        0x00003800:    7f00c0ff    ....    DCD    2130755839
        0x00003804:    00000000    ....    DCD    0
        0x00003808:    00000000    ....    DCD    0
        0x0000380c:    00000000    ....    DCD    0
        0x00003810:    00000000    ....    DCD    0
        0x00003814:    00000000    ....    DCD    0
        0x00003818:    66000042    B..f    DCD    1711276098
        0x0000381c:    00660000    ..f.    DCD    6684672
        0x00003820:    00003c00    .<..    DCD    15360
        0x00003824:    ff030018    ....    DCD    4278386712
        0x00003828:    001800c0    ....    DCD    1573056
        0x0000382c:    00003c00    .<..    DCD    15360
        0x00003830:    66000066    f..f    DCD    1711276134
        0x00003834:    00420000    ..B.    DCD    4325376
        0x00003838:    00000000    ....    DCD    0
        0x0000383c:    08000008    ....    DCD    134217736
        0x00003840:    00080000    ....    DCD    524288
        0x00003844:    00000800    ....    DCD    2048
        0x00003848:    ff010008    ....    DCD    4278255624
        0x0000384c:    000800c0    ....    DCD    524480
        0x00003850:    00000800    ....    DCD    2048
        0x00003854:    08000008    ....    DCD    134217736
        0x00003858:    00080000    ....    DCD    524288
        0x0000385c:    00000000    ....    DCD    0
        0x00003860:    00000100    ....    DCD    256
        0x00003864:    32000031    1..2    DCD    838860849
        0x00003868:    001c0000    ....    DCD    1835008
        0x0000386c:    00000000    ....    DCD    0
        0x00003870:    00000000    ....    DCD    0
        0x00003874:    00000000    ....    DCD    0
        0x00003878:    00000000    ....    DCD    0
        0x0000387c:    00000000    ....    DCD    0
        0x00003880:    00000000    ....    DCD    0
        0x00003884:    08000008    ....    DCD    134217736
        0x00003888:    00080000    ....    DCD    524288
        0x0000388c:    00000800    ....    DCD    2048
        0x00003890:    08000008    ....    DCD    134217736
        0x00003894:    00080000    ....    DCD    524288
        0x00003898:    00000800    ....    DCD    2048
        0x0000389c:    08000008    ....    DCD    134217736
        0x000038a0:    00000000    ....    DCD    0
        0x000038a4:    00000000    ....    DCD    0
        0x000038a8:    00000000    ....    DCD    0
        0x000038ac:    38000038    8..8    DCD    939524152
        0x000038b0:    00380000    ..8.    DCD    3670016
        0x000038b4:    00000000    ....    DCD    0
        0x000038b8:    00000000    ....    DCD    0
        0x000038bc:    00000000    ....    DCD    0
        0x000038c0:    00000000    ....    DCD    0
        0x000038c4:    00000000    ....    DCD    0
        0x000038c8:    00000000    ....    DCD    0
        0x000038cc:    00000600    ....    DCD    1536
        0x000038d0:    7000001c    ...p    DCD    1879048220
        0x000038d4:    00800100    ....    DCD    8388864
        0x000038d8:    3800000e    ...8    DCD    939524110
        0x000038dc:    00c00000    ....    DCD    12582912
        0x000038e0:    1c000007    ....    DCD    469762055
        0x000038e4:    00300000    ..0.    DCD    3145728
        0x000038e8:    00000000    ....    DCD    0
        0x000038ec:    00000000    ....    DCD    0
        0x000038f0:    ff01807f    ....    DCD    4278288511
        0x000038f4:    708003e0    ...p    DCD    1887437792
        0x000038f8:    04180006    ....    DCD    68681734
        0x000038fc:    00040800    ....    DCD    264192
        0x00003900:    18000608    ....    DCD    402654728
        0x00003904:    01708003    ..p.    DCD    24150019
        0x00003908:    7f00e0ff    ....    DCD    2130764031
        0x0000390c:    00000080    ....    DCD    128
        0x00003910:    00000000    ....    DCD    0
        0x00003914:    00010000    ....    DCD    65536
        0x00003918:    08000108    ....    DCD    134217992
        0x0000391c:    03080001    ....    DCD    50855937
        0x00003920:    ff07f8ff    ....    DCD    4278712575
        0x00003924:    080000f8    ....    DCD    134217976
        0x00003928:    00080000    ....    DCD    524288
        0x0000392c:    00000800    ....    DCD    2048
        0x00003930:    00000000    ....    DCD    0
        0x00003934:    01000000    ....    DCD    16777216
        0x00003938:    c00238c0    .8..    DCD    3221371072
        0x0000393c:    98000458    X...    DCD    2550137944
        0x00003940:    04180104    ....    DCD    68681988
        0x00003944:    04041802    ....    DCD    67377154
        0x00003948:    181c0618    ....    DCD    404489752
        0x0000394c:    0118f803    ....    DCD    18413571
        0x00003950:    0000f8e0    ....    DCD    63712
        0x00003954:    00000000    ....    DCD    0
        0x00003958:    01000000    ....    DCD    16777216
        0x0000395c:    c003e0c0    ....    DCD    3221479616
        0x00003960:    080004f0    ....    DCD    134218992
        0x00003964:    04080804    ....    DCD    67635204
        0x00003968:    18060808    ....    DCD    403048456
        0x0000396c:    18f40308    ....    DCD    418644744
        0x00003970:    00f0e701    ....    DCD    15787777
        0x00003974:    0000e001    ....    DCD    57345
        0x00003978:    00000000    ....    DCD    0
        0x0000397c:    00000000    ....    DCD    0
        0x00003980:    0d000003    ....    DCD    218103811
        0x00003984:    00110000    ....    DCD    1114112
        0x00003988:    00006100    .a..    DCD    24832
        0x0000398c:    01030881    ....    DCD    16976001
        0x00003990:    f8ff0708    ....    DCD    4177463048
        0x00003994:    00f8ff0f    ....    DCD    16318223
        0x00003998:    01000801    ....    DCD    16779265
        0x0000399c:    00000008    ....    DCD    8
        0x000039a0:    00000000    ....    DCD    0
        0x000039a4:    fc07e000    ....    DCD    4228374528
        0x000039a8:    080806d0    ....    DCD    134743760
        0x000039ac:    06081006    ....    DCD    101191686
        0x000039b0:    10060810    ....    DCD    268830736
        0x000039b4:    38180608    ...8    DCD    941098504
        0x000039b8:    06f00f06    ....    DCD    116395782
        0x000039bc:    0000c007    ....    DCD    49159
        0x000039c0:    00000000    ....    DCD    0
        0x000039c4:    00000000    ....    DCD    0
        0x000039c8:    ff01803f    ?...    DCD    4278288447
        0x000039cc:    308403e0    ...0    DCD    813958112
        0x000039d0:    04180802    ....    DCD    68683778
        0x000039d4:    10040810    ....    DCD    268699664
        0x000039d8:    08100408    ....    DCD    135267336
        0x000039dc:    03101807    ....    DCD    51386375
        0x000039e0:    0700f00f    ....    DCD    117501967
        0x000039e4:    000000c0    ....    DCD    192
        0x000039e8:    00000000    ....    DCD    0
        0x000039ec:    c0030000    ....    DCD    3221422080
        0x000039f0:    00000700    ....    DCD    1792
        0x000039f4:    06000006    ....    DCD    100663302
        0x000039f8:    0706f800    ....    DCD    117897216
        0x000039fc:    001806f8    ....    DCD    1574648
        0x00003a00:    0700e006    ....    DCD    117497862
        0x00003a04:    00060000    ....    DCD    393216
        0x00003a08:    00000000    ....    DCD    0
        0x00003a0c:    01000000    ....    DCD    16777216
        0x00003a10:    f703e0e1    ....    DCD    4144226529
        0x00003a14:    103406f0    ..4.    DCD    271845104
        0x00003a18:    04081804    ....    DCD    67639300
        0x00003a1c:    0c040818    ....    DCD    201590808
        0x00003a20:    080c0408    ....    DCD    135005192
        0x00003a24:    03181606    ....    DCD    51910150
        0x00003a28:    c101f0f3    ....    DCD    3238129907
        0x00003a2c:    000000e0    ....    DCD    224
        0x00003a30:    00000000    ....    DCD    0
        0x00003a34:    fc0300f8    ....    DCD    4228055288
        0x00003a38:    38060330    0..8    DCD    939918128
        0x00003a3c:    04080204    ....    DCD    67633668
        0x00003a40:    02040802    ....    DCD    33818626
        0x00003a44:    10040408    ....    DCD    268698632
        0x00003a48:    01f00803    ....    DCD    32507907
        0x00003a4c:    7f00c0ff    ....    DCD    2130755839
        0x00003a50:    00000000    ....    DCD    0
        0x00003a54:    00000000    ....    DCD    0
        0x00003a58:    00000000    ....    DCD    0
        0x00003a5c:    00000000    ....    DCD    0
        0x00003a60:    00000000    ....    DCD    0
        0x00003a64:    70003870    p8.p    DCD    1879062640
        0x00003a68:    38700038    8.p8    DCD    946864184
        0x00003a6c:    00000000    ....    DCD    0
        0x00003a70:    00000000    ....    DCD    0
        0x00003a74:    00000000    ....    DCD    0
        0x00003a78:    00000000    ....    DCD    0
        0x00003a7c:    00000000    ....    DCD    0
        0x00003a80:    00000000    ....    DCD    0
        0x00003a84:    00000000    ....    DCD    0
        0x00003a88:    30001a30    0..0    DCD    805313072
        0x00003a8c:    0000001c    ....    DCD    28
        0x00003a90:    00000000    ....    DCD    0
        0x00003a94:    00000000    ....    DCD    0
        0x00003a98:    00000000    ....    DCD    0
        0x00003a9c:    00000000    ....    DCD    0
        0x00003aa0:    08000000    ....    DCD    134217728
        0x00003aa4:    00140000    ....    DCD    1310720
        0x00003aa8:    00002200    ."..    DCD    8704
        0x00003aac:    80000041    A...    DCD    2147483713
        0x00003ab0:    40000180    ...@    DCD    1073742208
        0x00003ab4:    04200002    .. .    DCD    69206018
        0x00003ab8:    00081000    ....    DCD    528384
        0x00003abc:    00000008    ....    DCD    8
        0x00003ac0:    00000000    ....    DCD    0
        0x00003ac4:    21000021    !..!    DCD    553648161
        0x00003ac8:    00210000    ..!.    DCD    2162688
        0x00003acc:    00002100    .!..    DCD    8448
        0x00003ad0:    21000021    !..!    DCD    553648161
        0x00003ad4:    00210000    ..!.    DCD    2162688
        0x00003ad8:    00002100    .!..    DCD    8448
        0x00003adc:    21000021    !..!    DCD    553648161
        0x00003ae0:    00000000    ....    DCD    0
        0x00003ae4:    00000000    ....    DCD    0
        0x00003ae8:    00080000    ....    DCD    524288
        0x00003aec:    10000408    ....    DCD    268436488
        0x00003af0:    01200002    .. .    DCD    18874370
        0x00003af4:    80004000    .@..    DCD    2147500032
        0x00003af8:    00410080    ..A.    DCD    4259968
        0x00003afc:    00002200    ."..    DCD    8704
        0x00003b00:    08000014    ....    DCD    134217748
        0x00003b04:    00000000    ....    DCD    0
        0x00003b08:    03000000    ....    DCD    50331648
        0x00003b0c:    c00400c0    ....    DCD    3221487808
        0x00003b10:    00000400    ....    DCD    1024
        0x00003b14:    08380008    ..8.    DCD    137887752
        0x00003b18:    0808380f    .8..    DCD    134756367
        0x00003b1c:    00100838    8...    DCD    1050680
        0x00003b20:    0700300c    .0..    DCD    117452812
        0x00003b24:    c00300e0    ....    DCD    3221422304
        0x00003b28:    00000000    ....    DCD    0
        0x00003b2c:    00000000    ....    DCD    0
        0x00003b30:    ff00803f    ?...    DCD    4278222911
        0x00003b34:    708003e0    ...p    DCD    1887437792
        0x00003b38:    06100f02    ....    DCD    101715714
        0x00003b3c:    c0048870    p...    DCD    3221522544
        0x00003b40:    08830488    ....    DCD    142804104
        0x00003b44:    02887f04    ....    DCD    42499844
        0x00003b48:    010390c0    ....    DCD    17010880
        0x00003b4c:    40fe0020     ..@    DCD    1090388000
        0x00003b50:    00080000    ....    DCD    524288
        0x00003b54:    01001800    ....    DCD    16783360
        0x00003b58:    083e00f8    ..>.    DCD    138281208
        0x00003b5c:    0700c201    ....    DCD    117490177
        0x00003b60:    e2070002    ....    DCD    3792109570
        0x00003b64:    00fe0000    ....    DCD    16646144
        0x00003b68:    00c81f00    ....    DCD    13115136
        0x00003b6c:    0000f801    ....    DCD    63489
        0x00003b70:    08000038    8...    DCD    134217784
        0x00003b74:    07080004    ....    DCD    117964804
        0x00003b78:    ff07f8ff    ....    DCD    4278712575
        0x00003b7c:    080804f8    ....    DCD    134743288
        0x00003b80:    04080804    ....    DCD    67635204
        0x00003b84:    08040808    ....    DCD    134481928
        0x00003b88:    08180608    ....    DCD    135792136
        0x00003b8c:    0118f403    ....    DCD    18412547
        0x00003b90:    0100f0e7    ....    DCD    16838887
        0x00003b94:    000000e0    ....    DCD    224
        0x00003b98:    00000000    ....    DCD    0
        0x00003b9c:    ff01803f    ?...    DCD    4278288447
        0x00003ba0:    708003e0    ...p    DCD    1887437792
        0x00003ba4:    04180002    ....    DCD    68681730
        0x00003ba8:    00040800    ....    DCD    264192
        0x00003bac:    08000408    ....    DCD    134218760
        0x00003bb0:    06100004    ....    DCD    101711876
        0x00003bb4:    80072000    . ..    DCD    2147950592
        0x00003bb8:    000000c0    ....    DCD    192
        0x00003bbc:    07080004    ....    DCD    117964804
        0x00003bc0:    ff07f8ff    ....    DCD    4278712575
        0x00003bc4:    080004f8    ....    DCD    134219000
        0x00003bc8:    04080004    ....    DCD    67633156
        0x00003bcc:    00040800    ....    DCD    264192
        0x00003bd0:    10000218    ....    DCD    268435992
        0x00003bd4:    01708003    ..p.    DCD    24150019
        0x00003bd8:    7f00e0ff    ....    DCD    2130764031
        0x00003bdc:    00000080    ....    DCD    128
        0x00003be0:    07080004    ....    DCD    117964804
        0x00003be4:    ff07f8ff    ....    DCD    4278712575
        0x00003be8:    080804f8    ....    DCD    134743288
        0x00003bec:    04080804    ....    DCD    67635204
        0x00003bf0:    08040808    ....    DCD    134481928
        0x00003bf4:    083e0408    ..>.    DCD    138281992
        0x00003bf8:    06080004    ....    DCD    101187588
        0x00003bfc:    00011800    ....    DCD    71680
        0x00003c00:    00000060    `...    DCD    96
        0x00003c04:    07080004    ....    DCD    117964804
        0x00003c08:    ff07f8ff    ....    DCD    4278712575
        0x00003c0c:    080804f8    ....    DCD    134743288
        0x00003c10:    04000804    ....    DCD    67110916
        0x00003c14:    08040008    ....    DCD    134479880
        0x00003c18:    003e0400    ..>.    DCD    4064256
        0x00003c1c:    06000006    ....    DCD    100663302
        0x00003c20:    80010000    ....    DCD    2147549184
        0x00003c24:    00000000    ....    DCD    0
        0x00003c28:    00000000    ....    DCD    0
        0x00003c2c:    ff01803f    ?...    DCD    4278288447
        0x00003c30:    708003e0    ...p    DCD    1887437792
        0x00003c34:    04180006    ....    DCD    68681734
        0x00003c38:    02040800    ....    DCD    33818624
        0x00003c3c:    08020408    ....    DCD    134349832
        0x00003c40:    07f00302    ....    DCD    133169922
        0x00003c44:    0200f083    ....    DCD    33616003
        0x00003c48:    00020000    ....    DCD    131072
        0x00003c4c:    07080004    ....    DCD    117964804
        0x00003c50:    ff07f8ff    ....    DCD    4278712575
        0x00003c54:    080804f8    ....    DCD    134743288
        0x00003c58:    00000800    ....    DCD    2048
        0x00003c5c:    08000008    ....    DCD    134217736
        0x00003c60:    00080000    ....    DCD    524288
        0x00003c64:    07080804    ....    DCD    117966852
        0x00003c68:    ff07f8ff    ....    DCD    4278712575
        0x00003c6c:    080004f8    ....    DCD    134219000
        0x00003c70:    00000000    ....    DCD    0
        0x00003c74:    00040000    ....    DCD    262144
        0x00003c78:    08000408    ....    DCD    134218760
        0x00003c7c:    07080004    ....    DCD    117964804
        0x00003c80:    ff07f8ff    ....    DCD    4278712575
        0x00003c84:    080004f8    ....    DCD    134219000
        0x00003c88:    04080004    ....    DCD    67633156
        0x00003c8c:    00000800    ....    DCD    2048
        0x00003c90:    00000000    ....    DCD    0
        0x00003c94:    00000000    ....    DCD    0
        0x00003c98:    00000600    ....    DCD    1536
        0x00003c9c:    01000007    ....    DCD    16777223
        0x00003ca0:    04010004    ....    DCD    67174404
        0x00003ca4:    00040100    ....    DCD    262400
        0x00003ca8:    feff0703    ....    DCD    4278126339
        0x00003cac:    04fcff07    ....    DCD    83689223
        0x00003cb0:    00040000    ....    DCD    262144
        0x00003cb4:    00000400    ....    DCD    1024
        0x00003cb8:    07080004    ....    DCD    117964804
        0x00003cbc:    ff07f8ff    ....    DCD    4278712575
        0x00003cc0:    080c04f8    ....    DCD    135005432
        0x00003cc4:    00001800    ....    DCD    6144
        0x00003cc8:    c704003e    >...    DCD    3338928190
        0x00003ccc:    c8030580    ....    DCD    3355641216
        0x00003cd0:    04f80006    ....    DCD    83361798
        0x00003cd4:    00043800    .8..    DCD    276480
        0x00003cd8:    08000018    ....    DCD    134217752
        0x00003cdc:    07080004    ....    DCD    117964804
        0x00003ce0:    ff07f8ff    ....    DCD    4278712575
        0x00003ce4:    080004f8    ....    DCD    134219000
        0x00003ce8:    00080000    ....    DCD    524288
        0x00003cec:    00000800    ....    DCD    2048
        0x00003cf0:    08000008    ....    DCD    134217736
        0x00003cf4:    00080000    ....    DCD    524288
        0x00003cf8:    00001800    ....    DCD    6144
        0x00003cfc:    00000060    `...    DCD    96
        0x00003d00:    07080004    ....    DCD    117964804
        0x00003d04:    8007f8ff    ....    DCD    2148006143
        0x00003d08:    00fc0708    ....    DCD    16516872
        0x00003d0c:    00c07f00    ....    DCD    12615424
        0x00003d10:    0700f803    ....    DCD    117504003
        0x00003d14:    007800c0    ..x.    DCD    7864512
        0x00003d18:    07088007    ....    DCD    117997575
        0x00003d1c:    ff07f8ff    ....    DCD    4278712575
        0x00003d20:    080004f8    ....    DCD    134219000
        0x00003d24:    07080004    ....    DCD    117964804
        0x00003d28:    0007f8ff    ....    DCD    522495
        0x00003d2c:    00c00308    ....    DCD    12583688
        0x00003d30:    0000e000    ....    DCD    57344
        0x00003d34:    1e000038    8...    DCD    503316536
        0x00003d38:    00070000    ....    DCD    458752
        0x00003d3c:    04c00100    ....    DCD    79692032
        0x00003d40:    ff07f000    ....    DCD    4278710272
        0x00003d44:    000004f8    ....    DCD    1272
        0x00003d48:    00000000    ....    DCD    0
        0x00003d4c:    ff01807f    ....    DCD    4278288511
        0x00003d50:    708003e0    ...p    DCD    1887437792
        0x00003d54:    04180006    ....    DCD    68681734
        0x00003d58:    00040800    ....    DCD    264192
        0x00003d5c:    18000608    ....    DCD    402654728
        0x00003d60:    01300003    ..0.    DCD    19922947
        0x00003d64:    7f00e0ff    ....    DCD    2130764031
        0x00003d68:    00000080    ....    DCD    128
        0x00003d6c:    07080004    ....    DCD    117964804
        0x00003d70:    ff07f8ff    ....    DCD    4278712575
        0x00003d74:    080404f8    ....    DCD    134481144
        0x00003d78:    04000404    ....    DCD    67109892
        0x00003d7c:    04040004    ....    DCD    67371012
        0x00003d80:    00040400    ....    DCD    263168
        0x00003d84:    03000c06    ....    DCD    50334726
        0x00003d88:    f00100f8    ....    DCD    4026597624
        0x00003d8c:    00000000    ....    DCD    0
        0x00003d90:    00000000    ....    DCD    0
        0x00003d94:    ff01807f    ....    DCD    4278288511
        0x00003d98:    708003e0    ...p    DCD    1887437792
        0x00003d9c:    04880006    ....    DCD    76021766
        0x00003da0:    00048800    ....    DCD    296960
        0x00003da4:    3c0006c8    ...<    DCD    1006634696
        0x00003da8:    013e0003    ..>.    DCD    20840451
        0x00003dac:    7f00e6ff    ....    DCD    2130765567
        0x00003db0:    00000084    ....    DCD    132
        0x00003db4:    07080004    ....    DCD    117964804
        0x00003db8:    ff07f8ff    ....    DCD    4278712575
        0x00003dbc:    080804f8    ....    DCD    134743288
        0x00003dc0:    04000804    ....    DCD    67110916
        0x00003dc4:    0f04000c    ....    DCD    251920396
        0x00003dc8:    c00b0400    ....    DCD    3221947392
        0x00003dcc:    03f01006    ....    DCD    66064390
        0x00003dd0:    e00138f0    .8..    DCD    3758176496
        0x00003dd4:    08000008    ....    DCD    134217736
        0x00003dd8:    01000000    ....    DCD    16777216
        0x00003ddc:    f003f8e0    ....    DCD    4026792160
        0x00003de0:    10300630    0.0.    DCD    271582768
        0x00003de4:    04081804    ....    DCD    67639300
        0x00003de8:    0c040818    ....    DCD    201590808
        0x00003dec:    080c0408    ....    DCD    135005192
        0x00003df0:    02180602    ....    DCD    35128834
        0x00003df4:    8107f007    ....    DCD    2164781063
        0x00003df8:    000000e0    ....    DCD    224
        0x00003dfc:    06008001    ....    DCD    100696065
        0x00003e00:    00040000    ....    DCD    262144
        0x00003e04:    00000400    ....    DCD    1024
        0x00003e08:    07080004    ....    DCD    117964804
        0x00003e0c:    ff07f8ff    ....    DCD    4278712575
        0x00003e10:    080004f8    ....    DCD    134219000
        0x00003e14:    04000004    ....    DCD    67108868
        0x00003e18:    00060000    ....    DCD    393216
        0x00003e1c:    00800100    ....    DCD    8388864
        0x00003e20:    07000004    ....    DCD    117440516
        0x00003e24:    ff07e0ff    ....    DCD    4278706431
        0x00003e28:    180004f0    ....    DCD    402654448
        0x00003e2c:    00080000    ....    DCD    524288
        0x00003e30:    00000800    ....    DCD    2048
        0x00003e34:    08000008    ....    DCD    134217736
        0x00003e38:    04080000    ....    DCD    67633152
        0x00003e3c:    ff071000    ....    DCD    4278652928
        0x00003e40:    000004e0    ....    DCD    1248
        0x00003e44:    06000004    ....    DCD    100663300
        0x00003e48:    e0070000    ....    DCD    3758555136
        0x00003e4c:    00fe0700    ....    DCD    16647936
        0x00003e50:    00e01f04    ....    DCD    14688004
        0x00003e54:    0000f801    ....    DCD    63489
        0x00003e58:    e0010038    8...    DCD    3758161976
        0x00003e5c:    07003e04    .>..    DCD    117456388
        0x00003e60:    000600c0    ....    DCD    393408
        0x00003e64:    00000400    ....    DCD    1024
        0x00003e68:    07000004    ....    DCD    117440516
        0x00003e6c:    ff0700e0    ....    DCD    4278649056
        0x00003e70:    f81f04c0    ....    DCD    4162782400
        0x00003e74:    07c00700    ....    DCD    130025216
        0x00003e78:    ff0700f8    ....    DCD    4278649080
        0x00003e7c:    f83f0480    ..?.    DCD    4164879488
        0x00003e80:    04c00700    ....    DCD    79693568
        0x00003e84:    000700f8    ....    DCD    459000
        0x00003e88:    00000400    ....    DCD    1024
        0x00003e8c:    04000000    ....    DCD    67108864
        0x00003e90:    00060800    ....    DCD    395264
        0x00003e94:    78c00718    ...x    DCD    2025850648
        0x00003e98:    00c8f105    ....    DCD    13168901
        0x00003e9c:    1f00003e    >...    DCD    520093758
        0x00003ea0:    e8630480    ..c.    DCD    3898803328
        0x00003ea4:    06f88007    ....    DCD    116948999
        0x00003ea8:    00041800    ....    DCD    268288
        0x00003eac:    00000008    ....    DCD    8
        0x00003eb0:    06000004    ....    DCD    100663300
        0x00003eb4:    80070000    ....    DCD    2147942400
        0x00003eb8:    08e00700    ....    DCD    148899584
        0x00003ebc:    00087c04    .|..    DCD    556036
        0x00003ec0:    0700f81f    ....    DCD    117504031
        0x00003ec4:    081800f8    ....    DCD    135790840
        0x00003ec8:    0708e004    ....    DCD    118022148
        0x00003ecc:    00060000    ....    DCD    393216
        0x00003ed0:    00000400    ....    DCD    1024
        0x00003ed4:    01000000    ....    DCD    16777216
        0x00003ed8:    00060800    ....    DCD    395264
        0x00003edc:    f8000438    8...    DCD    4160750648
        0x00003ee0:    04e80304    ....    DCD    82313988
        0x00003ee4:    7c04080f    ...|    DCD    2080638991
        0x00003ee8:    08f00508    ....    DCD    149947656
        0x00003eec:    0708c007    ....    DCD    118013959
        0x00003ef0:    00041800    ....    DCD    268288
        0x00003ef4:    00000060    `...    DCD    96
        0x00003ef8:    00000000    ....    DCD    0
        0x00003efc:    00000000    ....    DCD    0
        0x00003f00:    00000000    ....    DCD    0
        0x00003f04:    3f000000    ...?    DCD    1056964608
        0x00003f08:    0020feff    .. .    DCD    2162431
        0x00003f0c:    02002002    . ..    DCD    33562626
        0x00003f10:    20020020     ..     DCD    537002016
        0x00003f14:    00200200    .. .    DCD    2097664
        0x00003f18:    00000002    ....    DCD    2
        0x00003f1c:    00000000    ....    DCD    0
        0x00003f20:    00080000    ....    DCD    524288
        0x00003f24:    00000700    ....    DCD    1792
        0x00003f28:    0000c000    ....    DCD    49152
        0x00003f2c:    06000038    8...    DCD    100663352
        0x00003f30:    c0010000    ....    DCD    3221291008
        0x00003f34:    00300000    ..0.    DCD    3145728
        0x00003f38:    00000e00    ....    DCD    3584
        0x00003f3c:    00000001    ....    DCD    1
        0x00003f40:    00000000    ....    DCD    0
        0x00003f44:    00200000    .. .    DCD    2097152
        0x00003f48:    02002002    . ..    DCD    33562626
        0x00003f4c:    20020020     ..     DCD    537002016
        0x00003f50:    00200200    .. .    DCD    2097664
        0x00003f54:    feff3f02    .?..    DCD    4278140674
        0x00003f58:    00000000    ....    DCD    0
        0x00003f5c:    00000000    ....    DCD    0
        0x00003f60:    00000000    ....    DCD    0
        0x00003f64:    00000000    ....    DCD    0
        0x00003f68:    00000000    ....    DCD    0
        0x00003f6c:    00000800    ....    DCD    2048
        0x00003f70:    30000010    ...0    DCD    805306384
        0x00003f74:    00200000    .. .    DCD    2097152
        0x00003f78:    00003000    .0..    DCD    12288
        0x00003f7c:    08000010    ....    DCD    134217744
        0x00003f80:    00000000    ....    DCD    0
        0x00003f84:    00000000    ....    DCD    0
        0x00003f88:    00010000    ....    DCD    65536
        0x00003f8c:    00000100    ....    DCD    256
        0x00003f90:    01000001    ....    DCD    16777217
        0x00003f94:    00010000    ....    DCD    65536
        0x00003f98:    00000100    ....    DCD    256
        0x00003f9c:    01000001    ....    DCD    16777217
        0x00003fa0:    00010000    ....    DCD    65536
        0x00003fa4:    00000100    ....    DCD    256
        0x00003fa8:    01000001    ....    DCD    16777217
        0x00003fac:    00000000    ....    DCD    0
        0x00003fb0:    00000000    ....    DCD    0
        0x00003fb4:    00002000    . ..    DCD    8192
        0x00003fb8:    10000020     ...    DCD    268435488
        0x00003fbc:    00100000    ....    DCD    1048576
        0x00003fc0:    00000000    ....    DCD    0
        0x00003fc4:    00000000    ....    DCD    0
        0x00003fc8:    00000000    ....    DCD    0
        0x00003fcc:    00000000    ....    DCD    0
        0x00003fd0:    00000000    ....    DCD    0
        0x00003fd4:    1900f000    ....    DCD    419491840
        0x00003fd8:    181b00f8    ....    DCD    404422904
        0x00003fdc:    00082200    ."..    DCD    532992
        0x00003fe0:    24000826    &..$    DCD    603981862
        0x00003fe4:    10240008    ..$.    DCD    270794760
        0x00003fe8:    00f83f00    .?..    DCD    16269056
        0x00003fec:    0000f81f    ....    DCD    63519
        0x00003ff0:    18000008    ....    DCD    402653192
        0x00003ff4:    04000000    ....    DCD    67108864
        0x00003ff8:    ff070000    ....    DCD    4278648832
        0x00003ffc:    f0ff0ff8    ....    DCD    4043247608
        0x00004000:    00181800    ....    DCD    1579008
        0x00004004:    20000810    ...     DCD    536872976
        0x00004008:    08200008    .. .    DCD    136314888
        0x0000400c:    00183000    .0..    DCD    1585152
        0x00004010:    0f00f01f    ....    DCD    251719711
        0x00004014:    000000c0    ....    DCD    192
        0x00004018:    00000000    ....    DCD    0
        0x0000401c:    1f00c007    ....    DCD    520142855
        0x00004020:    301800f0    ...0    DCD    806879472
        0x00004024:    00082000    . ..    DCD    532480
        0x00004028:    20000820     ..     DCD    536872992
        0x0000402c:    083c0008    ..<.    DCD    138149896
        0x00004030:    00101c00    ....    DCD    1055744
        0x00004034:    00006000    .`..    DCD    24576
        0x00004038:    00000000    ....    DCD    0
        0x0000403c:    00000000    ....    DCD    0
        0x00004040:    1f00c007    ....    DCD    520142855
        0x00004044:    183800f0    ..8.    DCD    406323440
        0x00004048:    00082000    . ..    DCD    532480
        0x0000404c:    20000820     ..     DCD    536872992
        0x00004050:    10100408    ....    DCD    269485064
        0x00004054:    0ff8ff07    ....    DCD    267976455
        0x00004058:    0000f0ff    ....    DCD    61695
        0x0000405c:    00000010    ....    DCD    16
        0x00004060:    00000000    ....    DCD    0
        0x00004064:    07000000    ....    DCD    117440512
        0x00004068:    f01f00c0    ....    DCD    4028563648
        0x0000406c:    00301200    ..0.    DCD    3150336
        0x00004070:    22001822    ".."    DCD    570431522
        0x00004074:    08220008    ..".    DCD    136445960
        0x00004078:    00083200    .2..    DCD    537088
        0x0000407c:    0e00101e    ....    DCD    234885150
        0x00004080:    00000020     ...    DCD    32
        0x00004084:    00000000    ....    DCD    0
        0x00004088:    20000020     ..     DCD    536870944
        0x0000408c:    08200008    .. .    DCD    136314888
        0x00004090:    03f8ff01    ....    DCD    66649857
        0x00004094:    2006f8ff    ...     DCD    537327871
        0x00004098:    08200408    .. .    DCD    136315912
        0x0000409c:    07082004    . ..    DCD    117972996
        0x000040a0:    00030020     ...    DCD    196640
        0x000040a4:    00000000    ....    DCD    0
        0x000040a8:    00000000    ....    DCD    0
        0x000040ac:    0e000e00    ....    DCD    234884608
        0x000040b0:    f31f006e    n...    DCD    4078895214
        0x000040b4:    00b13100    .1..    DCD    11612416
        0x000040b8:    2000b120     ..     DCD    536916256
        0x000040bc:    913100b1    ..1.    DCD    2435907761
        0x000040c0:    00131f00    ....    DCD    1253120
        0x000040c4:    20001e2e    ...     DCD    536878638
        0x000040c8:    0030000e    ..0.    DCD    3145742
        0x000040cc:    04000000    ....    DCD    67108864
        0x000040d0:    ff070800    ....    DCD    4278650880
        0x000040d4:    f8ff0ff8    ....    DCD    4177465336
        0x000040d8:    00081000    ....    DCD    528384
        0x000040dc:    20000020     ..     DCD    536870944
        0x000040e0:    08200000    .. .    DCD    136314880
        0x000040e4:    00f83f00    .?..    DCD    16269056
        0x000040e8:    0000f81f    ....    DCD    63519
        0x000040ec:    00000008    ....    DCD    8
        0x000040f0:    00000000    ....    DCD    0
        0x000040f4:    20000000    ...     DCD    536870912
        0x000040f8:    08200008    .. .    DCD    136314888
        0x000040fc:    06082000    . ..    DCD    101195776
        0x00004100:    3f06f83f    ?..?    DCD    1057421375
        0x00004104:    080000f8    ....    DCD    134217976
        0x00004108:    00080000    ....    DCD    524288
        0x0000410c:    00000800    ....    DCD    2048
        0x00004110:    00000000    ....    DCD    0
        0x00004114:    00000000    ....    DCD    0
        0x00004118:    00000000    ....    DCD    0
        0x0000411c:    03000003    ....    DCD    50331651
        0x00004120:    00012000    . ..    DCD    73728
        0x00004124:    20000120     ..     DCD    536871200
        0x00004128:    fe3f0603    ..?.    DCD    4265543171
        0x0000412c:    00fc3f06    .?..    DCD    16531206
        0x00004130:    00000000    ....    DCD    0
        0x00004134:    00000000    ....    DCD    0
        0x00004138:    04000000    ....    DCD    67108864
        0x0000413c:    ff070800    ....    DCD    4278650880
        0x00004140:    f8ff0ff8    ....    DCD    4177465336
        0x00004144:    00880100    ....    DCD    8913152
        0x00004148:    2f000003    .../    DCD    788529155
        0x0000414c:    f83800c0    ..8.    DCD    4164419776
        0x00004150:    00382000    . 8.    DCD    3678208
        0x00004154:    00000820     ...    DCD    2080
        0x00004158:    00000008    ....    DCD    8
        0x0000415c:    00000000    ....    DCD    0
        0x00004160:    00040000    ....    DCD    262144
        0x00004164:    08000408    ....    DCD    134218760
        0x00004168:    07080004    ....    DCD    117964804
        0x0000416c:    ff0ff8ff    ....    DCD    4279236863
        0x00004170:    080000f8    ....    DCD    134217976
        0x00004174:    00080000    ....    DCD    524288
        0x00004178:    00000800    ....    DCD    2048
        0x0000417c:    00000000    ....    DCD    0
        0x00004180:    00082000    . ..    DCD    532480
        0x00004184:    3f00f83f    ?..?    DCD    1057028159
        0x00004188:    081000f8    ....    DCD    135266552
        0x0000418c:    00002000    . ..    DCD    8192
        0x00004190:    3f00f83f    ?..?    DCD    1057028159
        0x00004194:    081000f8    ....    DCD    135266552
        0x00004198:    00002000    . ..    DCD    8192
        0x0000419c:    3f00f83f    ?..?    DCD    1057028159
        0x000041a0:    080000f8    ....    DCD    134217976
        0x000041a4:    00000000    ....    DCD    0
        0x000041a8:    3f000820     ..?    DCD    1056966688
        0x000041ac:    f83f00f8    ..?.    DCD    4164878584
        0x000041b0:    00081000    ....    DCD    528384
        0x000041b4:    20000010    ...     DCD    536870928
        0x000041b8:    08200000    .. .    DCD    136314880
        0x000041bc:    00f83f00    .?..    DCD    16269056
        0x000041c0:    0000f81f    ....    DCD    63519
        0x000041c4:    00000008    ....    DCD    8
        0x000041c8:    00000000    ....    DCD    0
        0x000041cc:    0f00c007    ....    DCD    251707399
        0x000041d0:    301800f0    ...0    DCD    806879472
        0x000041d4:    00083000    .0..    DCD    536576
        0x000041d8:    20000820     ..     DCD    536872992
        0x000041dc:    08300008    ..0.    DCD    137363464
        0x000041e0:    00301800    ..0.    DCD    3151872
        0x000041e4:    0700f00f    ....    DCD    117501967
        0x000041e8:    000000c0    ....    DCD    192
        0x000041ec:    00000000    ....    DCD    0
        0x000041f0:    3f000120     ..?    DCD    1056964896
        0x000041f4:    ff3f00ff    ..?.    DCD    4282319103
        0x000041f8:    00111000    ....    DCD    1118208
        0x000041fc:    20000920     ..     DCD    536873248
        0x00004200:    08200008    .. .    DCD    136314888
        0x00004204:    00383000    .08.    DCD    3682304
        0x00004208:    0f00f01f    ....    DCD    251719711
        0x0000420c:    000000c0    ....    DCD    192
        0x00004210:    00000000    ....    DCD    0
        0x00004214:    1f00c007    ....    DCD    520142855
        0x00004218:    183800f0    ..8.    DCD    406323440
        0x0000421c:    00082000    . ..    DCD    532480
        0x00004220:    20000820     ..     DCD    536872992
        0x00004224:    11100009    ....    DCD    286261257
        0x00004228:    00ff1f00    ....    DCD    16719616
        0x0000422c:    0000ff3f    ?...    DCD    65343
        0x00004230:    00000001    ....    DCD    1
        0x00004234:    00082000    . ..    DCD    532480
        0x00004238:    20000820     ..     DCD    536872992
        0x0000423c:    f83f0008    ..?.    DCD    4164878344
        0x00004240:    00f83f00    .?..    DCD    16269056
        0x00004244:    10000808    ....    DCD    268437512
        0x00004248:    08200008    .. .    DCD    136314888
        0x0000424c:    00002000    . ..    DCD    8192
        0x00004250:    30000030    0..0    DCD    805306416
        0x00004254:    00000000    ....    DCD    0
        0x00004258:    00000000    ....    DCD    0
        0x0000425c:    0c000000    ....    DCD    201326592
        0x00004260:    181e0078    x...    DCD    404619384
        0x00004264:    00083300    .3..    DCD    537344
        0x00004268:    21000823    #..!    DCD    553650211
        0x0000426c:    88210008    ..!.    DCD    2283864072
        0x00004270:    00982100    .!..    DCD    9969920
        0x00004274:    3800f030    0..8    DCD    939585584
        0x00004278:    00000060    `...    DCD    96
        0x0000427c:    00000000    ....    DCD    0
        0x00004280:    20000020     ..     DCD    536870944
        0x00004284:    00200000    .. .    DCD    2097152
        0x00004288:    03f0ff00    ....    DCD    66125568
        0x0000428c:    2000f8ff    ...     DCD    536934655
        0x00004290:    08200008    .. .    DCD    136314888
        0x00004294:    00082000    . ..    DCD    532480
        0x00004298:    00003000    .0..    DCD    12288
        0x0000429c:    00000000    ....    DCD    0
        0x000042a0:    00000000    ....    DCD    0
        0x000042a4:    3f000020     ..?    DCD    1056964640
        0x000042a8:    f87f00f0    ....    DCD    4169072880
        0x000042ac:    00180000    ....    DCD    1572864
        0x000042b0:    00000800    ....    DCD    2048
        0x000042b4:    10200008    .. .    DCD    270532616
        0x000042b8:    00f83f00    .?..    DCD    16269056
        0x000042bc:    0000f07f    ....    DCD    61567
        0x000042c0:    00000010    ....    DCD    16
        0x000042c4:    00000000    ....    DCD    0
        0x000042c8:    30000020     ..0    DCD    805306400
        0x000042cc:    003c0000    ..<.    DCD    3932160
        0x000042d0:    00803f00    .?..    DCD    8404736
        0x000042d4:    0000f023    #...    DCD    61475
        0x000042d8:    70000078    x..p    DCD    1879048312
        0x000042dc:    00802300    .#..    DCD    8397568
        0x000042e0:    3000003c    <..0    DCD    805306428
        0x000042e4:    00200000    .. .    DCD    2097152
        0x000042e8:    00002000    . ..    DCD    8192
        0x000042ec:    3f00003c    <..?    DCD    1056964668
        0x000042f0:    f82300e0    ..#.    DCD    4163043552
        0x000042f4:    00e00000    ....    DCD    14680064
        0x000042f8:    3e000027    '..>    DCD    1040187431
        0x000042fc:    e03f0000    ..?.    DCD    3762225152
        0x00004300:    00f82100    .!..    DCD    16261376
        0x00004304:    3e00e001    ...>    DCD    1040244737
        0x00004308:    00200000    .. .    DCD    2097152
        0x0000430c:    00000000    ....    DCD    0
        0x00004310:    20000820     ..     DCD    536872992
        0x00004314:    38380008    ..88    DCD    943194120
        0x00004318:    00683e00    .>h.    DCD    6831616
        0x0000431c:    03008027    '...    DCD    50364455
        0x00004320:    f82c00c8    ..,.    DCD    4163633352
        0x00004324:    00383800    .88.    DCD    3684352
        0x00004328:    20001820     ..     DCD    536877088
        0x0000432c:    00000008    ....    DCD    8
        0x00004330:    00000000    ....    DCD    0
        0x00004334:    30000020     ..0    DCD    805306400
        0x00004338:    013c0003    ..<.    DCD    20709379
        0x0000433c:    00833f00    .?..    DCD    8601344
        0x00004340:    0000ec23    #...    DCD    60451
        0x00004344:    80230070    p.#.    DCD    2149777520
        0x00004348:    00003c00    .<..    DCD    15360
        0x0000434c:    20000020     ..     DCD    536870944
        0x00004350:    00000000    ....    DCD    0
        0x00004354:    00000000    ....    DCD    0
        0x00004358:    38000000    ...8    DCD    939524096
        0x0000435c:    38200008    .. 8    DCD    941621256
        0x00004360:    00f82000    . ..    DCD    16261120
        0x00004364:    2f00e823    #../    DCD    788588579
        0x00004368:    083e0088    ..>.    DCD    138281096
        0x0000436c:    00083800    .8..    DCD    538624
        0x00004370:    00001820     ...    DCD    6176
        0x00004374:    00000070    p...    DCD    112
        0x00004378:    00000000    ....    DCD    0
        0x0000437c:    00000000    ....    DCD    0
        0x00004380:    00000000    ....    DCD    0
        0x00004384:    00000000    ....    DCD    0
        0x00004388:    14000008    ....    DCD    335544328
        0x0000438c:    fcf71f00    ....    DCD    4244053760
        0x00004390:    20060030    0..     DCD    537264176
        0x00004394:    00000200    ....    DCD    512
        0x00004398:    00000000    ....    DCD    0
        0x0000439c:    00000000    ....    DCD    0
        0x000043a0:    00000000    ....    DCD    0
        0x000043a4:    00000000    ....    DCD    0
        0x000043a8:    00000000    ....    DCD    0
        0x000043ac:    ffff0000    ....    DCD    4294901760
        0x000043b0:    000000ff    ....    DCD    255
        0x000043b4:    00000000    ....    DCD    0
        0x000043b8:    00000000    ....    DCD    0
        0x000043bc:    00000000    ....    DCD    0
        0x000043c0:    00000000    ....    DCD    0
        0x000043c4:    00200000    .. .    DCD    2097152
        0x000043c8:    06003002    .0..    DCD    100675586
        0x000043cc:    00fcf71f    ....    DCD    16578335
        0x000043d0:    08000014    ....    DCD    134217748
        0x000043d4:    00000000    ....    DCD    0
        0x000043d8:    00000000    ....    DCD    0
        0x000043dc:    00000000    ....    DCD    0
        0x000043e0:    00000000    ....    DCD    0
        0x000043e4:    18000000    ....    DCD    402653184
        0x000043e8:    00600000    ..`.    DCD    6291456
        0x000043ec:    00004000    .@..    DCD    16384
        0x000043f0:    20000040    @..     DCD    536870976
        0x000043f4:    00100000    ....    DCD    1048576
        0x000043f8:    00000800    ....    DCD    2048
        0x000043fc:    04000004    ....    DCD    67108868
        0x00004400:    000c0000    ....    DCD    786432
        0x00004404:    00001000    ....    DCD    4096
    .constdata
    starSky_key
        0x00004408:    00000370    p...    DCD    880
        0x0000440c:    00000293    ....    DCD    659
        0x00004410:    00000293    ....    DCD    659
        0x00004414:    00000293    ....    DCD    659
        0x00004418:    0000024b    K...    DCD    587
        0x0000441c:    00000293    ....    DCD    659
        0x00004420:    00000293    ....    DCD    659
        0x00004424:    0000020b    ....    DCD    523
        0x00004428:    0000024b    K...    DCD    587
        0x0000442c:    00000293    ....    DCD    659
        0x00004430:    00000310    ....    DCD    784
        0x00004434:    00000370    p...    DCD    880
        0x00004438:    00000293    ....    DCD    659
        0x0000443c:    00000293    ....    DCD    659
        0x00004440:    00000293    ....    DCD    659
        0x00004444:    0000024b    K...    DCD    587
        0x00004448:    0000020b    ....    DCD    523
        0x0000444c:    0000020b    ....    DCD    523
        0x00004450:    0000020b    ....    DCD    523
        0x00004454:    0000024b    K...    DCD    587
        0x00004458:    00000293    ....    DCD    659
        0x0000445c:    00000310    ....    DCD    784
        0x00004460:    0000024b    K...    DCD    587
        0x00004464:    0000024b    K...    DCD    587
        0x00004468:    0000024b    K...    DCD    587
        0x0000446c:    0000024b    K...    DCD    587
        0x00004470:    0000020b    ....    DCD    523
        0x00004474:    0000024b    K...    DCD    587
        0x00004478:    0000024b    K...    DCD    587
        0x0000447c:    000001ee    ....    DCD    494
        0x00004480:    0000020b    ....    DCD    523
        0x00004484:    0000024b    K...    DCD    587
        0x00004488:    00000310    ....    DCD    784
        0x0000448c:    00000293    ....    DCD    659
        0x00004490:    0000024b    K...    DCD    587
        0x00004494:    00000293    ....    DCD    659
        0x00004498:    00000416    ....    DCD    1046
        0x0000449c:    00000293    ....    DCD    659
        0x000044a0:    0000024b    K...    DCD    587
        0x000044a4:    0000020b    ....    DCD    523
        0x000044a8:    0000024b    K...    DCD    587
        0x000044ac:    000003dc    ....    DCD    988
        0x000044b0:    00000310    ....    DCD    784
    starSky_beat
        0x000044b4:    00000002    ....    DCD    2
        0x000044b8:    00000002    ....    DCD    2
        0x000044bc:    00000002    ....    DCD    2
        0x000044c0:    00000001    ....    DCD    1
        0x000044c4:    00000001    ....    DCD    1
        0x000044c8:    00000002    ....    DCD    2
        0x000044cc:    00000002    ....    DCD    2
        0x000044d0:    00000001    ....    DCD    1
        0x000044d4:    00000001    ....    DCD    1
        0x000044d8:    00000001    ....    DCD    1
        0x000044dc:    00000001    ....    DCD    1
        0x000044e0:    00000002    ....    DCD    2
        0x000044e4:    00000002    ....    DCD    2
        0x000044e8:    00000002    ....    DCD    2
        0x000044ec:    00000001    ....    DCD    1
        0x000044f0:    00000001    ....    DCD    1
        0x000044f4:    00000002    ....    DCD    2
        0x000044f8:    00000002    ....    DCD    2
        0x000044fc:    00000001    ....    DCD    1
        0x00004500:    00000001    ....    DCD    1
        0x00004504:    00000001    ....    DCD    1
        0x00004508:    00000001    ....    DCD    1
        0x0000450c:    00000002    ....    DCD    2
        0x00004510:    00000002    ....    DCD    2
        0x00004514:    00000002    ....    DCD    2
        0x00004518:    00000001    ....    DCD    1
        0x0000451c:    00000001    ....    DCD    1
        0x00004520:    00000002    ....    DCD    2
        0x00004524:    00000002    ....    DCD    2
        0x00004528:    00000001    ....    DCD    1
        0x0000452c:    00000001    ....    DCD    1
        0x00004530:    00000001    ....    DCD    1
        0x00004534:    00000001    ....    DCD    1
        0x00004538:    00000001    ....    DCD    1
        0x0000453c:    00000001    ....    DCD    1
        0x00004540:    00000002    ....    DCD    2
        0x00004544:    00000002    ....    DCD    2
        0x00004548:    00000002    ....    DCD    2
        0x0000454c:    00000001    ....    DCD    1
        0x00004550:    00000001    ....    DCD    1
        0x00004554:    00000002    ....    DCD    2
        0x00004558:    00000002    ....    DCD    2
        0x0000455c:    00000002    ....    DCD    2
    Region$$Table$$Base
        0x00004560:    00004580    .E..    DCD    17792
        0x00004564:    20000000    ...     DCD    536870912
        0x00004568:    00000014    ....    DCD    20
        0x0000456c:    0000133c    <...    DCD    4924
        0x00004570:    00004594    .E..    DCD    17812
        0x00004574:    20000014    ...     DCD    536870932
        0x00004578:    0000429c    .B..    DCD    17052
        0x0000457c:    0000134c    L...    DCD    4940
    Region$$Table$$Limit

====================================

** Section #2

    Name        : RW_IRAM1
    Type        : SHT_PROGBITS (0x00000001)
    Flags       : SHF_ALLOC + SHF_WRITE (0x00000003)
    Addr        : 0x20000000
    File Offset : 17844 (0x45b4)
    Size        : 20 bytes (0x14)
    Link        : SHN_UNDEF
    Info        : 0
    Alignment   : 4
    Entry Size  : 0


====================================

** Section #3

    Name        : RW_IRAM1
    Type        : SHT_NOBITS (0x00000008)
    Flags       : SHF_ALLOC + SHF_WRITE (0x00000003)
    Addr        : 0x20000014
    File Offset : 17864 (0x45c8)
    Size        : 17052 bytes (0x429c)
    Link        : SHN_UNDEF
    Info        : 0
    Alignment   : 8
    Entry Size  : 0


====================================

** Section #4

    Name        : .debug_abbrev
    Type        : SHT_PROGBITS (0x00000001)
    Flags       : None (0x00000000)
    Addr        : 0x00000000
    File Offset : 17864 (0x45c8)
    Size        : 1476 bytes (0x5c4)
    Link        : SHN_UNDEF
    Info        : 0
    Alignment   : 1
    Entry Size  : 0


====================================

** Section #5

    Name        : .debug_frame
    Type        : SHT_PROGBITS (0x00000001)
    Flags       : None (0x00000000)
    Addr        : 0x00000000
    File Offset : 19340 (0x4b8c)
    Size        : 3460 bytes (0xd84)
    Link        : SHN_UNDEF
    Info        : 0
    Alignment   : 1
    Entry Size  : 0


====================================

** Section #6

    Name        : .debug_info
    Type        : SHT_PROGBITS (0x00000001)
    Flags       : None (0x00000000)
    Addr        : 0x00000000
    File Offset : 22800 (0x5910)
    Size        : 35072 bytes (0x8900)
    Link        : SHN_UNDEF
    Info        : 0
    Alignment   : 1
    Entry Size  : 0


====================================

** Section #7

    Name        : .debug_line
    Type        : SHT_PROGBITS (0x00000001)
    Flags       : None (0x00000000)
    Addr        : 0x00000000
    File Offset : 57872 (0xe210)
    Size        : 15788 bytes (0x3dac)
    Link        : SHN_UNDEF
    Info        : 0
    Alignment   : 1
    Entry Size  : 0


====================================

** Section #8

    Name        : .debug_loc
    Type        : SHT_PROGBITS (0x00000001)
    Flags       : None (0x00000000)
    Addr        : 0x00000000
    File Offset : 73660 (0x11fbc)
    Size        : 8396 bytes (0x20cc)
    Link        : SHN_UNDEF
    Info        : 0
    Alignment   : 1
    Entry Size  : 0


====================================

** Section #9

    Name        : .debug_macinfo
    Type        : SHT_PROGBITS (0x00000001)
    Flags       : None (0x00000000)
    Addr        : 0x00000000
    File Offset : 82056 (0x14088)
    Size        : 30768 bytes (0x7830)
    Link        : SHN_UNDEF
    Info        : 0
    Alignment   : 1
    Entry Size  : 0


====================================

** Section #10

    Name        : .debug_pubnames
    Type        : SHT_PROGBITS (0x00000001)
    Flags       : None (0x00000000)
    Addr        : 0x00000000
    File Offset : 112824 (0x1b8b8)
    Size        : 3825 bytes (0xef1)
    Link        : SHN_UNDEF
    Info        : 0
    Alignment   : 1
    Entry Size  : 0


====================================

** Section #11

    Name        : .symtab
    Type        : SHT_SYMTAB (0x00000002)
    Flags       : None (0x00000000)
    Addr        : 0x00000000
    File Offset : 116652 (0x1c7ac)
    Size        : 6320 bytes (0x18b0)
    Link        : Section 12 (.strtab)
    Info        : Last local symbol no = 253
    Alignment   : 4
    Entry Size  : 16


====================================

** Section #12

    Name        : .strtab
    Type        : SHT_STRTAB (0x00000003)
    Flags       : None (0x00000000)
    Addr        : 0x00000000
    File Offset : 122972 (0x1e05c)
    Size        : 5356 bytes (0x14ec)
    Link        : SHN_UNDEF
    Info        : 0
    Alignment   : 1
    Entry Size  : 0


====================================

** Section #13

    Name        : .note
    Type        : SHT_NOTE (0x00000007)
    Flags       : None (0x00000000)
    Addr        : 0x00000000
    File Offset : 128328 (0x1f548)
    Size        : 28 bytes (0x1c)
    Link        : SHN_UNDEF
    Info        : 0
    Alignment   : 4
    Entry Size  : 0

        Section     Segment
    ====================================

              1           0
              2           0
              3           0

====================================

** Section #14

    Name        : .comment
    Type        : SHT_PROGBITS (0x00000001)
    Flags       : None (0x00000000)
    Addr        : 0x00000000
    File Offset : 128356 (0x1f564)
    Size        : 10600 bytes (0x2968)
    Link        : SHN_UNDEF
    Info        : 0
    Alignment   : 1
    Entry Size  : 0

    Component: ARM Compiler 5.06 update 7 (build 960) Tool: armlink [4d3601]
    ArmLink --library_type=microlib --callgraph --load_addr_map_info --map --symbols --xref --diag_suppress=9931 --cpu=Cortex-M3 --list=.\Listings\CortexM3.map --output=.\Objects\CortexM3.axf --scatter=.\Objects\CortexM3.sct --info=summarysizes,sizes,totals,unused,veneers

    D:\Keil_v5\ARM\ARMCC\Bin\..\lib\armlib\h_w.l
    D:\Keil_v5\ARM\ARMCC\Bin\..\lib\armlib\m_ws.l
    D:\Keil_v5\ARM\ARMCC\Bin\..\lib\armlib\mc_w.l
    D:\Keil_v5\ARM\ARMCC\Bin\..\lib\armlib\mf_w.l
    D:\Keil_v5\ARM\ARMCC\Bin\..\lib\armlib\vfpsupport.l
    Input Comments:
    
    cortexm3_driver.o
    
    Component: ARM Compiler 5.06 update 7 (build 960) Tool: armlink [4d3601]
    armlink --partial --no_add_relocs_to_undefined --no_generate_mapping_symbols --diag_suppress=9931,9931,47,223,6642 --cpu=Cortex-M3 --fpu=SoftVFP --output=.\objects\cortexm3_driver.o --vfemode=force

    Input Comments:
    
    p489c-3
    
    Component: ARM Compiler 5.06 update 7 (build 960) Tool: armasm [4d35fa]
    armasm --debug --diag_suppress=9931,9931,47,223,1602,1073 --cpu=Cortex-M3 --fpu=SoftVFP --apcs=/interwork/interwork --divide 
    cortexm3_driver.o
    
    Component: ARM Compiler 5.06 update 7 (build 960) Tool: ArmCC [4d365d]
    ArmCC --c99 --split_sections --debug -c --gnu -o.\objects\cortexm3_driver.o --depend=.\objects\cortexm3_driver.d --cpu=Cortex-M3 --apcs=interwork -O0 --diag_suppress=9931,47,223 -I..\Software\Core\CMSIS -I..\Software\Core\Device\Include -I..\Software\User\Func -ID:\Users\DELL\AppData\Local\Arm\Packs\Keil\V2M-MPS2_CMx_BSP\1.8.0\Device\CMSDK_CM3\Include -ID:\Keil_v5\ARM\CMSIS\Include -D__MICROLIB -D__UVISION_VERSION=533 -DCMSDK_CM3 --omf_browse=.\objects\cortexm3_driver.crf ..\Software\Core\Device\Source\CortexM3_driver.c
    
    
    
    
    
    startup_cm3ds.o
    
    Component: ARM Compiler 5.06 update 7 (build 960) Tool: armasm [4d35fa]
    ArmAsm --debug --xref --diag_suppress=9931 --cpu=Cortex-M3 --apcs=interwork --depend=.\objects\startup_cm3ds.d  -ID:\Users\DELL\AppData\Local\Arm\Packs\Keil\V2M-MPS2_CMx_BSP\1.8.0\Device\CMSDK_CM3\Include -ID:\Keil_v5\ARM\CMSIS\Include
    
    
    handler.o
    
    Component: ARM Compiler 5.06 update 7 (build 960) Tool: armlink [4d3601]
    armlink --partial --no_add_relocs_to_undefined --no_generate_mapping_symbols --diag_suppress=9931,9931,47,223,6642 --cpu=Cortex-M3 --fpu=SoftVFP --output=.\objects\handler.o --vfemode=force

    Input Comments:
    
    p1b0-3
    
    Component: ARM Compiler 5.06 update 7 (build 960) Tool: armasm [4d35fa]
    armasm --debug --diag_suppress=9931,9931,47,223,1602,1073 --cpu=Cortex-M3 --fpu=SoftVFP --apcs=/interwork/interwork --divide 
    handler.o
    
    Component: ARM Compiler 5.06 update 7 (build 960) Tool: ArmCC [4d365d]
    ArmCC --c99 --split_sections --debug -c --gnu -o.\objects\handler.o --depend=.\objects\handler.d --cpu=Cortex-M3 --apcs=interwork -O0 --diag_suppress=9931,47,223 -I..\Software\Core\CMSIS -I..\Software\Core\Device\Include -I..\Software\User\Func -ID:\Users\DELL\AppData\Local\Arm\Packs\Keil\V2M-MPS2_CMx_BSP\1.8.0\Device\CMSDK_CM3\Include -ID:\Keil_v5\ARM\CMSIS\Include -D__MICROLIB -D__UVISION_VERSION=533 -DCMSDK_CM3 --omf_browse=.\objects\handler.crf ..\Software\Core\Device\Source\handler.c
    
    
    system.o
    
    Component: ARM Compiler 5.06 update 7 (build 960) Tool: armlink [4d3601]
    armlink --partial --no_add_relocs_to_undefined --no_generate_mapping_symbols --diag_suppress=9931,9931,47,223,6642 --cpu=Cortex-M3 --fpu=SoftVFP --output=.\objects\system.o --vfemode=force

    Input Comments:
    
    p4c98-3
    
    Component: ARM Compiler 5.06 update 7 (build 960) Tool: armasm [4d35fa]
    armasm --debug --diag_suppress=9931,9931,47,223,1602,1073 --cpu=Cortex-M3 --fpu=SoftVFP --apcs=/interwork/interwork --divide 
    system.o
    
    Component: ARM Compiler 5.06 update 7 (build 960) Tool: ArmCC [4d365d]
    ArmCC --c99 --split_sections --debug -c --gnu -o.\objects\system.o --depend=.\objects\system.d --cpu=Cortex-M3 --apcs=interwork -O0 --diag_suppress=9931,47,223 -I..\Software\Core\CMSIS -I..\Software\Core\Device\Include -I..\Software\User\Func -ID:\Users\DELL\AppData\Local\Arm\Packs\Keil\V2M-MPS2_CMx_BSP\1.8.0\Device\CMSDK_CM3\Include -ID:\Keil_v5\ARM\CMSIS\Include -D__MICROLIB -D__UVISION_VERSION=533 -DCMSDK_CM3 --omf_browse=.\objects\system.crf ..\Software\Core\Device\Source\system.c
    
    
    
    retarget.o
    
    Component: ARM Compiler 5.06 update 7 (build 960) Tool: armlink [4d3601]
    armlink --partial --no_add_relocs_to_undefined --no_generate_mapping_symbols --diag_suppress=9931,9931,47,223,6642 --cpu=Cortex-M3 --fpu=SoftVFP --output=.\objects\retarget.o --vfemode=force

    Input Comments:
    
    p50dc-3
    
    Component: ARM Compiler 5.06 update 7 (build 960) Tool: armasm [4d35fa]
    armasm --debug --diag_suppress=9931,9931,47,223,1602,1073 --cpu=Cortex-M3 --fpu=SoftVFP --apcs=/interwork/interwork --divide 
    retarget.o
    
    Component: ARM Compiler 5.06 update 7 (build 960) Tool: ArmCC [4d365d]
    ArmCC --c99 --split_sections --debug -c --gnu -o.\objects\retarget.o --depend=.\objects\retarget.d --cpu=Cortex-M3 --apcs=interwork -O0 --diag_suppress=9931,47,223 -I..\Software\Core\CMSIS -I..\Software\Core\Device\Include -I..\Software\User\Func -ID:\Users\DELL\AppData\Local\Arm\Packs\Keil\V2M-MPS2_CMx_BSP\1.8.0\Device\CMSDK_CM3\Include -ID:\Keil_v5\ARM\CMSIS\Include -D__MICROLIB -D__UVISION_VERSION=533 -DCMSDK_CM3 --omf_browse=.\objects\retarget.crf ..\Software\Core\Device\Source\Retarget.c
    
    
    
    main.o
    
    Component: ARM Compiler 5.06 update 7 (build 960) Tool: armlink [4d3601]
    armlink --partial --no_add_relocs_to_undefined --no_generate_mapping_symbols --diag_suppress=9931,9931,47,223,6642 --cpu=Cortex-M3 --fpu=SoftVFP --output=.\objects\main.o --vfemode=force

    Input Comments:
    
    p3484-3
    
    Component: ARM Compiler 5.06 update 7 (build 960) Tool: armasm [4d35fa]
    armasm --debug --diag_suppress=9931,9931,47,223,1602,1073 --cpu=Cortex-M3 --fpu=SoftVFP --apcs=/interwork/interwork --divide 
    main.o
    
    Component: ARM Compiler 5.06 update 7 (build 960) Tool: ArmCC [4d365d]
    ArmCC --c99 --split_sections --debug -c --gnu -o.\objects\main.o --depend=.\objects\main.d --cpu=Cortex-M3 --apcs=interwork -O0 --diag_suppress=9931,47,223 -I..\Software\Core\CMSIS -I..\Software\Core\Device\Include -I..\Software\User\Func -ID:\Users\DELL\AppData\Local\Arm\Packs\Keil\V2M-MPS2_CMx_BSP\1.8.0\Device\CMSDK_CM3\Include -ID:\Keil_v5\ARM\CMSIS\Include -D__MICROLIB -D__UVISION_VERSION=533 -DCMSDK_CM3 --omf_browse=.\objects\main.crf ..\Software\User\main.c
    
    
    
    
    
    basic_draw.o
    
    Component: ARM Compiler 5.06 update 7 (build 960) Tool: armlink [4d3601]
    armlink --partial --no_add_relocs_to_undefined --no_generate_mapping_symbols --diag_suppress=9931,9931,47,223,6642 --cpu=Cortex-M3 --fpu=SoftVFP --output=.\objects\basic_draw.o --vfemode=force

    Input Comments:
    
    p4898-3
    
    Component: ARM Compiler 5.06 update 7 (build 960) Tool: armasm [4d35fa]
    armasm --debug --diag_suppress=9931,9931,47,223,1602,1073 --cpu=Cortex-M3 --fpu=SoftVFP --apcs=/interwork/interwork --divide 
    basic_draw.o
    
    Component: ARM Compiler 5.06 update 7 (build 960) Tool: ArmCC [4d365d]
    ArmCC --c99 --split_sections --debug -c --gnu -o.\objects\basic_draw.o --depend=.\objects\basic_draw.d --cpu=Cortex-M3 --apcs=interwork -O0 --diag_suppress=9931,47,223 -I..\Software\Core\CMSIS -I..\Software\Core\Device\Include -I..\Software\User\Func -ID:\Users\DELL\AppData\Local\Arm\Packs\Keil\V2M-MPS2_CMx_BSP\1.8.0\Device\CMSDK_CM3\Include -ID:\Keil_v5\ARM\CMSIS\Include -D__MICROLIB -D__UVISION_VERSION=533 -DCMSDK_CM3 --omf_browse=.\objects\basic_draw.crf ..\Software\User\Func\basic_draw.c
    
    
    
    
    draw.o
    
    Component: ARM Compiler 5.06 update 7 (build 960) Tool: armlink [4d3601]
    armlink --partial --no_add_relocs_to_undefined --no_generate_mapping_symbols --diag_suppress=9931,9931,47,223,6642 --cpu=Cortex-M3 --fpu=SoftVFP --output=.\objects\draw.o --vfemode=force

    Input Comments:
    
    p529c-3
    
    Component: ARM Compiler 5.06 update 7 (build 960) Tool: armasm [4d35fa]
    armasm --debug --diag_suppress=9931,9931,47,223,1602,1073 --cpu=Cortex-M3 --fpu=SoftVFP --apcs=/interwork/interwork --divide 
    draw.o
    
    Component: ARM Compiler 5.06 update 7 (build 960) Tool: ArmCC [4d365d]
    ArmCC --c99 --split_sections --debug -c --gnu -o.\objects\draw.o --depend=.\objects\draw.d --cpu=Cortex-M3 --apcs=interwork -O0 --diag_suppress=9931,47,223 -I..\Software\Core\CMSIS -I..\Software\Core\Device\Include -I..\Software\User\Func -ID:\Users\DELL\AppData\Local\Arm\Packs\Keil\V2M-MPS2_CMx_BSP\1.8.0\Device\CMSDK_CM3\Include -ID:\Keil_v5\ARM\CMSIS\Include -D__MICROLIB -D__UVISION_VERSION=533 -DCMSDK_CM3 --omf_browse=.\objects\draw.crf ..\Software\User\Func\draw.c
    
    
    
    
    basic_run.o
    
    Component: ARM Compiler 5.06 update 7 (build 960) Tool: armlink [4d3601]
    armlink --partial --no_add_relocs_to_undefined --no_generate_mapping_symbols --diag_suppress=9931,9931,47,223,6642 --cpu=Cortex-M3 --fpu=SoftVFP --output=.\objects\basic_run.o --vfemode=force

    Input Comments:
    
    p13c8-3
    
    Component: ARM Compiler 5.06 update 7 (build 960) Tool: armasm [4d35fa]
    armasm --debug --diag_suppress=9931,9931,47,223,1602,1073 --cpu=Cortex-M3 --fpu=SoftVFP --apcs=/interwork/interwork --divide 
    basic_run.o
    
    Component: ARM Compiler 5.06 update 7 (build 960) Tool: ArmCC [4d365d]
    ArmCC --c99 --split_sections --debug -c --gnu -o.\objects\basic_run.o --depend=.\objects\basic_run.d --cpu=Cortex-M3 --apcs=interwork -O0 --diag_suppress=9931,47,223 -I..\Software\Core\CMSIS -I..\Software\Core\Device\Include -I..\Software\User\Func -ID:\Users\DELL\AppData\Local\Arm\Packs\Keil\V2M-MPS2_CMx_BSP\1.8.0\Device\CMSDK_CM3\Include -ID:\Keil_v5\ARM\CMSIS\Include -D__MICROLIB -D__UVISION_VERSION=533 -DCMSDK_CM3 --omf_browse=.\objects\basic_run.crf ..\Software\User\Func\basic_run.c
    
    
    run.o
    
    Component: ARM Compiler 5.06 update 7 (build 960) Tool: armlink [4d3601]
    armlink --partial --no_add_relocs_to_undefined --no_generate_mapping_symbols --diag_suppress=9931,9931,47,223,6642 --cpu=Cortex-M3 --fpu=SoftVFP --output=.\objects\run.o --vfemode=force

    Input Comments:
    
    p5588-3
    
    Component: ARM Compiler 5.06 update 7 (build 960) Tool: armasm [4d35fa]
    armasm --debug --diag_suppress=9931,9931,47,223,1602,1073 --cpu=Cortex-M3 --fpu=SoftVFP --apcs=/interwork/interwork --divide 
    run.o
    
    Component: ARM Compiler 5.06 update 7 (build 960) Tool: ArmCC [4d365d]
    ArmCC --c99 --split_sections --debug -c --gnu -o.\objects\run.o --depend=.\objects\run.d --cpu=Cortex-M3 --apcs=interwork -O0 --diag_suppress=9931,47,223 -I..\Software\Core\CMSIS -I..\Software\Core\Device\Include -I..\Software\User\Func -ID:\Users\DELL\AppData\Local\Arm\Packs\Keil\V2M-MPS2_CMx_BSP\1.8.0\Device\CMSDK_CM3\Include -ID:\Keil_v5\ARM\CMSIS\Include -D__MICROLIB -D__UVISION_VERSION=533 -DCMSDK_CM3 --omf_browse=.\objects\run.crf ..\Software\User\Func\run.c
    
    
    
    
    

====================================

** Section #15

    Name        : .shstrtab
    Type        : SHT_STRTAB (0x00000003)
    Flags       : None (0x00000000)
    Addr        : 0x00000000
    File Offset : 138956 (0x21ecc)
    Size        : 156 bytes (0x9c)
    Link        : SHN_UNDEF
    Info        : 0
    Alignment   : 1
    Entry Size  : 0


====================================

